
SocketServer.elf:     file format elf32-littlenios2
SocketServer.elf
architecture: nios2, flags 0x00000112:
EXEC_P, HAS_SYMS, D_PAGED
start address 0x032001c0

Program Header:
    LOAD off    0x00001000 vaddr 0x03200000 paddr 0x03200000 align 2**12
         filesz 0x00000020 memsz 0x00000020 flags r-x
    LOAD off    0x00001020 vaddr 0x03200020 paddr 0x03200020 align 2**12
         filesz 0x000509b4 memsz 0x000509b4 flags r-x
    LOAD off    0x000519d4 vaddr 0x032509d4 paddr 0x03252ad0 align 2**12
         filesz 0x000020fc memsz 0x000020fc flags rw-
    LOAD off    0x00053bcc vaddr 0x03254bcc paddr 0x03254bcc align 2**12
         filesz 0x00000000 memsz 0x00008cd0 flags rw-

Sections:
Idx Name          Size      VMA       LMA       File off  Algn
  0 .entry        00000020  03200000  03200000  00001000  2**5
                  CONTENTS, ALLOC, LOAD, READONLY, CODE
  1 .exceptions   000001a0  03200020  03200020  00001020  2**2
                  CONTENTS, ALLOC, LOAD, READONLY, CODE
  2 .text         0004c1ac  032001c0  032001c0  000011c0  2**2
                  CONTENTS, ALLOC, LOAD, READONLY, CODE
  3 .rodata       00004668  0324c36c  0324c36c  0004d36c  2**2
                  CONTENTS, ALLOC, LOAD, READONLY, DATA
  4 .rwdata       000020fc  032509d4  03252ad0  000519d4  2**2
                  CONTENTS, ALLOC, LOAD, DATA, SMALL_DATA
  5 .bss          00008cd0  03254bcc  03254bcc  00053bcc  2**2
                  ALLOC, SMALL_DATA
  6 .comment      00000026  00000000  00000000  00053ad0  2**0
                  CONTENTS, READONLY
  7 .debug_aranges 00001e98  00000000  00000000  00053af8  2**3
                  CONTENTS, READONLY, DEBUGGING
  8 .debug_pubnames 0000588c  00000000  00000000  00055990  2**0
                  CONTENTS, READONLY, DEBUGGING
  9 .debug_info   0008a46a  00000000  00000000  0005b21c  2**0
                  CONTENTS, READONLY, DEBUGGING
 10 .debug_abbrev 00014850  00000000  00000000  000e5686  2**0
                  CONTENTS, READONLY, DEBUGGING
 11 .debug_line   00048822  00000000  00000000  000f9ed6  2**0
                  CONTENTS, READONLY, DEBUGGING
 12 .debug_frame  00006c74  00000000  00000000  001426f8  2**2
                  CONTENTS, READONLY, DEBUGGING
 13 .debug_str    00003d84  00000000  00000000  0014936c  2**0
                  CONTENTS, READONLY, DEBUGGING
 14 .debug_loc    00019bfa  00000000  00000000  0014d0f0  2**0
                  CONTENTS, READONLY, DEBUGGING
 15 .debug_alt_sim_info 00000060  00000000  00000000  00166cec  2**2
                  CONTENTS, READONLY, DEBUGGING
 16 .debug_ranges 00000b48  00000000  00000000  00166d50  2**3
                  CONTENTS, READONLY, DEBUGGING
 17 .thread_model 00000006  00000000  00000000  001725bf  2**0
                  CONTENTS, READONLY
 18 .cpu          00000003  00000000  00000000  001725c5  2**0
                  CONTENTS, READONLY
 19 .simulation_enabled 00000001  00000000  00000000  001725c8  2**0
                  CONTENTS, READONLY
 20 .sysid_hash   00000004  00000000  00000000  001725c9  2**0
                  CONTENTS, READONLY
 21 .sysid_base   00000004  00000000  00000000  001725cd  2**0
                  CONTENTS, READONLY
 22 .sysid_time   00000004  00000000  00000000  001725d1  2**0
                  CONTENTS, READONLY
 23 .stderr_dev   00000009  00000000  00000000  001725d5  2**0
                  CONTENTS, READONLY
 24 .stdin_dev    00000009  00000000  00000000  001725de  2**0
                  CONTENTS, READONLY
 25 .stdout_dev   00000009  00000000  00000000  001725e7  2**0
                  CONTENTS, READONLY
 26 .sopc_system_name 0000000c  00000000  00000000  001725f0  2**0
                  CONTENTS, READONLY
 27 .quartus_project_dir 0000000e  00000000  00000000  001725fc  2**0
                  CONTENTS, READONLY
 28 .jdi          00004495  00000000  00000000  0017260a  2**0
                  CONTENTS, READONLY
SYMBOL TABLE:
03200000 l    d  .entry	00000000 .entry
03200020 l    d  .exceptions	00000000 .exceptions
032001c0 l    d  .text	00000000 .text
0324c36c l    d  .rodata	00000000 .rodata
032509d4 l    d  .rwdata	00000000 .rwdata
03254bcc l    d  .bss	00000000 .bss
00000000 l    d  .comment	00000000 .comment
00000000 l    d  .debug_aranges	00000000 .debug_aranges
00000000 l    d  .debug_pubnames	00000000 .debug_pubnames
00000000 l    d  .debug_info	00000000 .debug_info
00000000 l    d  .debug_abbrev	00000000 .debug_abbrev
00000000 l    d  .debug_line	00000000 .debug_line
00000000 l    d  .debug_frame	00000000 .debug_frame
00000000 l    d  .debug_str	00000000 .debug_str
00000000 l    d  .debug_loc	00000000 .debug_loc
00000000 l    d  .debug_alt_sim_info	00000000 .debug_alt_sim_info
00000000 l    d  .debug_ranges	00000000 .debug_ranges
03200208 l       .text	00000000 alt_after_alt_main
00000000 l    df *ABS*	00000000 alt_irq_handler.c
00000000 l    df *ABS*	00000000 alt_error_handler.c
00000000 l    df *ABS*	00000000 camera.c
03254bcc l     O .bss	00000004 vga.1628
00000000 l    df *ABS*	00000000 main.c
00000000 l    df *ABS*	00000000 network_utilities.c
00000000 l    df *ABS*	00000000 simple_socket_server.c
03254bdc l     O .bss	00000004 SSSCommand.4717
03254dd8 l     O .bss	00000814 conn.5299
00000000 l    df *ABS*	00000000 trackers.c
00000000 l    df *ABS*	00000000 lib2-divmod.c
03204684 l     F .text	0000007c udivmodsi4
00000000 l    df *ABS*	00000000 ctype_.c
0324d921 l     O .rodata	00000180 _ctype_b
00000000 l    df *ABS*	00000000 fclose.c
00000000 l    df *ABS*	00000000 fflush.c
00000000 l    df *ABS*	00000000 findfp.c
03204b24 l     F .text	00000058 std
03204c30 l     F .text	00000008 __fp_lock
03204c38 l     F .text	00000008 __fp_unlock
00000000 l    df *ABS*	00000000 fopen.c
00000000 l    df *ABS*	00000000 fprintf.c
00000000 l    df *ABS*	00000000 fputs.c
00000000 l    df *ABS*	00000000 mallocr.c
00000000 l    df *ABS*	00000000 fseek.c
00000000 l    df *ABS*	00000000 fstatr.c
00000000 l    df *ABS*	00000000 fvwrite.c
00000000 l    df *ABS*	00000000 fwalk.c
00000000 l    df *ABS*	00000000 fwrite.c
00000000 l    df *ABS*	00000000 getc.c
00000000 l    df *ABS*	00000000 impure.c
03250a14 l     O .rwdata	00000400 impure_data
00000000 l    df *ABS*	00000000 int_errno.c
00000000 l    df *ABS*	00000000 makebuf.c
00000000 l    df *ABS*	00000000 mallocr.c
00000000 l    df *ABS*	00000000 memchr.c
00000000 l    df *ABS*	00000000 memcpy.c
00000000 l    df *ABS*	00000000 memmove.c
00000000 l    df *ABS*	00000000 memset.c
00000000 l    df *ABS*	00000000 openr.c
00000000 l    df *ABS*	00000000 perror.c
00000000 l    df *ABS*	00000000 printf.c
00000000 l    df *ABS*	00000000 putc.c
00000000 l    df *ABS*	00000000 putchar.c
00000000 l    df *ABS*	00000000 puts.c
00000000 l    df *ABS*	00000000 mallocr.c
00000000 l    df *ABS*	00000000 refill.c
032078d4 l     F .text	0000001c lflush
00000000 l    df *ABS*	00000000 rget.c
00000000 l    df *ABS*	00000000 sbrkr.c
00000000 l    df *ABS*	00000000 sprintf.c
00000000 l    df *ABS*	00000000 sscanf.c
03207a94 l     F .text	00000008 eofread
00000000 l    df *ABS*	00000000 stdio.c
00000000 l    df *ABS*	00000000 strchr.c
00000000 l    df *ABS*	00000000 strerror.c
00000000 l    df *ABS*	00000000 strlen.c
00000000 l    df *ABS*	00000000 u_strerr.c
00000000 l    df *ABS*	00000000 vfprintf.c
032084c4 l     F .text	00000058 __sprint_r
0324e2c2 l     O .rodata	00000010 blanks.3452
0324e2b2 l     O .rodata	00000010 zeroes.3453
00000000 l    df *ABS*	00000000 vfscanf.c
0324e2da l     O .rodata	00000022 basefix.3357
00000000 l    df *ABS*	00000000 wbuf.c
00000000 l    df *ABS*	00000000 writer.c
00000000 l    df *ABS*	00000000 wsetup.c
00000000 l    df *ABS*	00000000 closer.c
00000000 l    df *ABS*	00000000 dtoa.c
0320bedc l     F .text	00000218 quorem
00000000 l    df *ABS*	00000000 flags.c
00000000 l    df *ABS*	00000000 fputc.c
00000000 l    df *ABS*	00000000 fread.c
00000000 l    df *ABS*	00000000 isattyr.c
00000000 l    df *ABS*	00000000 iswspace.c
00000000 l    df *ABS*	00000000 locale.c
032529a0 l     O .rwdata	00000004 charset
0324e31c l     O .rodata	00000030 lconv
00000000 l    df *ABS*	00000000 lseekr.c
00000000 l    df *ABS*	00000000 mbrtowc.c
00000000 l    df *ABS*	00000000 mbtowc_r.c
00000000 l    df *ABS*	00000000 mprec.c
0324e464 l     O .rodata	0000000c p05.2458
00000000 l    df *ABS*	00000000 readr.c
00000000 l    df *ABS*	00000000 s_isinfd.c
00000000 l    df *ABS*	00000000 s_isnand.c
00000000 l    df *ABS*	00000000 sccl.c
00000000 l    df *ABS*	00000000 sf_nan.c
00000000 l    df *ABS*	00000000 strcmp.c
00000000 l    df *ABS*	00000000 strtod.c
0320ef78 l     F .text	00000048 match
0325123c l     O .rwdata	00000014 fpi.1950
0324e480 l     O .rodata	00000028 tinytens
03251228 l     O .rwdata	00000014 fpinan.1986
00000000 l    df *ABS*	00000000 strtol.c
00000000 l    df *ABS*	00000000 strtoll_r.c
00000000 l    df *ABS*	00000000 strtoul.c
00000000 l    df *ABS*	00000000 strtoull_r.c
00000000 l    df *ABS*	00000000 ungetc.c
00000000 l    df *ABS*	00000000 mallocr.c
00000000 l    df *ABS*	00000000 gdtoa-gethex.c
032113f0 l     F .text	00000024 htinit
0321147c l     F .text	000000b0 rshift
00000000 l    df *ABS*	00000000 gdtoa-hexnan.c
03211ce4 l     F .text	0000004c L_shift
00000000 l    df *ABS*	00000000 libgcc2.c
00000000 l    df *ABS*	00000000 libgcc2.c
00000000 l    df *ABS*	00000000 libgcc2.c
00000000 l    df *ABS*	00000000 libgcc2.c
00000000 l    df *ABS*	00000000 fp-bit.c
00000000 l    df *ABS*	00000000 fp-bit.c
00000000 l    df *ABS*	00000000 fp-bit.c
00000000 l    df *ABS*	00000000 dp-bit.c
03212da8 l     F .text	00000410 _fpadd_parts
00000000 l    df *ABS*	00000000 dp-bit.c
00000000 l    df *ABS*	00000000 dp-bit.c
00000000 l    df *ABS*	00000000 dp-bit.c
00000000 l    df *ABS*	00000000 dp-bit.c
00000000 l    df *ABS*	00000000 dp-bit.c
00000000 l    df *ABS*	00000000 dp-bit.c
00000000 l    df *ABS*	00000000 dp-bit.c
00000000 l    df *ABS*	00000000 dp-bit.c
00000000 l    df *ABS*	00000000 dp-bit.c
00000000 l    df *ABS*	00000000 dp-bit.c
00000000 l    df *ABS*	00000000 dp-bit.c
00000000 l    df *ABS*	00000000 dp-bit.c
00000000 l    df *ABS*	00000000 dp-bit.c
00000000 l    df *ABS*	00000000 libgcc2.c
00000000 l    df *ABS*	00000000 libgcc2.c
00000000 l    df *ABS*	00000000 fp-bit.c
00000000 l    df *ABS*	00000000 fp-bit.c
00000000 l    df *ABS*	00000000 fp-bit.c
00000000 l    df *ABS*	00000000 dp-bit.c
00000000 l    df *ABS*	00000000 dp-bit.c
00000000 l    df *ABS*	00000000 dp-bit.c
00000000 l    df *ABS*	00000000 fp-bit.c
00000000 l    df *ABS*	00000000 alt_flash_dev.c
00000000 l    df *ABS*	00000000 alt_fstat.c
03214a04 l     F .text	00000060 alt_get_errno
00000000 l    df *ABS*	00000000 alt_isatty.c
03214b24 l     F .text	00000060 alt_get_errno
00000000 l    df *ABS*	00000000 alt_load.c
03214c04 l     F .text	0000006c alt_load_section
00000000 l    df *ABS*	00000000 alt_lseek.c
03214d60 l     F .text	00000060 alt_get_errno
00000000 l    df *ABS*	00000000 alt_main.c
00000000 l    df *ABS*	00000000 alt_open.c
03214e88 l     F .text	000000dc alt_file_locked
032150ec l     F .text	00000060 alt_get_errno
00000000 l    df *ABS*	00000000 alt_release_fd.c
00000000 l    df *ABS*	00000000 alt_sbrk.c
032529ac l     O .rwdata	00000004 heap_end
00000000 l    df *ABS*	00000000 alt_env_lock.c
032529b0 l     O .rwdata	00000004 lockid
03254c08 l     O .bss	00000004 locks
00000000 l    df *ABS*	00000000 alt_malloc_lock.c
032529b4 l     O .rwdata	00000004 lockid
03254c10 l     O .bss	00000004 locks
00000000 l    df *ABS*	00000000 os_core.c
03216c40 l     F .text	00000044 OS_InitMisc
03216c84 l     F .text	0000006c OS_InitRdyList
03216de8 l     F .text	000000e0 OS_InitTCBList
03216b64 l     F .text	000000dc OS_InitEventList
03216cf0 l     F .text	0000007c OS_InitTaskIdle
03216d6c l     F .text	0000007c OS_InitTaskStat
0321705c l     F .text	00000070 OS_SchedNew
00000000 l    df *ABS*	00000000 os_dbg.c
00000000 l    df *ABS*	00000000 os_flag.c
03218f7c l     F .text	00000110 OS_FlagTaskRdy
03218cd4 l     F .text	000001c4 OS_FlagBlock
00000000 l    df *ABS*	00000000 os_mem.c
00000000 l    df *ABS*	00000000 os_q.c
00000000 l    df *ABS*	00000000 os_sem.c
00000000 l    df *ABS*	00000000 os_task.c
00000000 l    df *ABS*	00000000 os_time.c
00000000 l    df *ABS*	00000000 alt_sys_init.c
03251250 l     O .rwdata	000000d8 ext_flash
03251328 l     O .rwdata	0000106c jtag_uart
03252394 l     O .rwdata	00000124 lcd
0321d918 l     F .text	00000038 alt_dev_reg
00000000 l    df *ABS*	00000000 altera_avalon_cfi_flash.c
0321d9ec l     F .text	00000038 alt_flash_device_register
00000000 l    df *ABS*	00000000 altera_avalon_cfi_flash_table.c
0321e7dc l     F .text	0000007c alt_read_16bit_query_entry
00000000 l    df *ABS*	00000000 altera_avalon_jtag_uart_fd.c
00000000 l    df *ABS*	00000000 altera_avalon_jtag_uart_init.c
0321f938 l     F .text	000002c8 altera_avalon_jtag_uart_irq
0321fc00 l     F .text	00000114 altera_avalon_jtag_uart_timeout
00000000 l    df *ABS*	00000000 altera_avalon_jtag_uart_ioctl.c
00000000 l    df *ABS*	00000000 altera_avalon_jtag_uart_read.c
00000000 l    df *ABS*	00000000 altera_avalon_jtag_uart_write.c
00000000 l    df *ABS*	00000000 altera_avalon_lcd_16207.c
03252a2c l     O .rwdata	00000004 colstart
03220418 l     F .text	000000b8 lcd_write_command
032204d0 l     F .text	000000d4 lcd_write_data
032205a4 l     F .text	000000c4 lcd_clear_screen
03220668 l     F .text	000001ec lcd_repaint_screen
03220854 l     F .text	000000c8 lcd_scroll_up
0322091c l     F .text	000002d0 lcd_handle_escape
03221124 l     F .text	000000cc alt_lcd_16207_timeout
00000000 l    df *ABS*	00000000 altera_avalon_lcd_16207_fd.c
00000000 l    df *ABS*	00000000 altera_avalon_timer_sc.c
032213ac l     F .text	00000074 alt_avalon_timer_sc_irq
00000000 l    df *ABS*	00000000 avalon_locator.c
00000000 l    df *ABS*	00000000 ins_eth_ocm.c
03221db0 l     F .text	000000a0 eth_ocm_pkt_send
032222c0 l     F .text	000000f4 eth_ocm_isr
032223b4 l     F .text	000001dc eth_ocm_read_init
03222004 l     F .text	000002bc eth_ocm_tx_isr
03221e50 l     F .text	000001b4 eth_ocm_low_send
03222590 l     F .text	0000035c eth_ocm_rx_isr
00000000 l    df *ABS*	00000000 alt_iniche_close.c
00000000 l    df *ABS*	00000000 alt_iniche_dev.c
00000000 l    df *ABS*	00000000 alt_iniche_read.c
00000000 l    df *ABS*	00000000 alt_iniche_write.c
00000000 l    df *ABS*	00000000 ipnet.c
00000000 l    df *ABS*	00000000 ipstart.c
03254c78 l     O .bss	00000004 nclosers
03255614 l     O .bss	0000003c closers
00000000 l    df *ABS*	00000000 igmp_cmn.c
00000000 l    df *ABS*	00000000 bsdsock.c
00000000 l    df *ABS*	00000000 cksum.c
03252a3c l     O .rwdata	00000004 cksum_select
00000000 l    df *ABS*	00000000 in_utils.c
03255650 l     O .bss	00000018 tistring
00000000 l    df *ABS*	00000000 netmain.c
00000000 l    df *ABS*	00000000 tk_crnos.c
00000000 l    df *ABS*	00000000 dhcpclnt.c
032291c0 l     F .text	000000cc dh_getlong
00000000 l    df *ABS*	00000000 dhcputil.c
00000000 l    df *ABS*	00000000 pktalloc.c
00000000 l    df *ABS*	00000000 q.c
00000000 l    df *ABS*	00000000 udp_open.c
0322aeec l       .text	00000000 done
0322ad7c l       .text	00000000 asm1
0322aea8 l       .text	00000000 loop0
0322ada4 l       .text	00000000 loop
0322aec4 l       .text	00000000 fold
00000000 l    df *ABS*	00000000 brdutils.c
03254cd8 l     O .bss	00000004 kbd_init.3791
03254ce4 l     O .bss	00000004 cpu_statusreg
00000000 l    df *ABS*	00000000 osportco.c
00000000 l    df *ABS*	00000000 targnios.c
00000000 l    df *ABS*	00000000 nptcp.c
03254d18 l     O .bss	00000004 in_tcptick
00000000 l    df *ABS*	00000000 rawsock.c
00000000 l    df *ABS*	00000000 sockcall.c
0322f5f0 l     F .text	00000098 sockargs
0322e82c l     F .text	000001fc t_getname
00000000 l    df *ABS*	00000000 socket.c
00000000 l    df *ABS*	00000000 socket2.c
00000000 l    df *ABS*	00000000 soselect.c
00000000 l    df *ABS*	00000000 tcp_in.c
00000000 l    df *ABS*	00000000 tcp_out.c
03237924 l     F .text	000000e8 bld_options
00000000 l    df *ABS*	00000000 tcp_subr.c
00000000 l    df *ABS*	00000000 tcp_timr.c
00000000 l    df *ABS*	00000000 tcp_usr.c
00000000 l    df *ABS*	00000000 tcpport.c
00000000 l    df *ABS*	00000000 udpsock.c
00000000 l    df *ABS*	00000000 alt_alarm_start.c
00000000 l    df *ABS*	00000000 alt_close.c
0323a534 l     F .text	00000060 alt_get_errno
00000000 l    df *ABS*	00000000 alt_dcache_flush.c
00000000 l    df *ABS*	00000000 alt_dcache_flush_all.c
00000000 l    df *ABS*	00000000 alt_dev.c
0323a650 l     F .text	0000002c alt_dev_null_write
00000000 l    df *ABS*	00000000 alt_dev_llist_insert.c
0323a730 l     F .text	00000060 alt_get_errno
00000000 l    df *ABS*	00000000 alt_do_ctors.c
00000000 l    df *ABS*	00000000 alt_do_dtors.c
00000000 l    df *ABS*	00000000 alt_errno.c
00000000 l    df *ABS*	00000000 alt_find_dev.c
00000000 l    df *ABS*	00000000 alt_find_file.c
00000000 l    df *ABS*	00000000 alt_get_fd.c
00000000 l    df *ABS*	00000000 alt_icache_flush_all.c
00000000 l    df *ABS*	00000000 alt_io_redirect.c
0323ab30 l     F .text	000000c4 alt_open_fd
00000000 l    df *ABS*	00000000 alt_irq_register.c
00000000 l    df *ABS*	00000000 alt_irq_vars.c
00000000 l    df *ABS*	00000000 alt_read.c
0323af4c l     F .text	00000060 alt_get_errno
00000000 l    df *ABS*	00000000 alt_remap_cached.c
00000000 l    df *ABS*	00000000 alt_remap_uncached.c
00000000 l    df *ABS*	00000000 alt_tick.c
00000000 l    df *ABS*	00000000 alt_usleep.c
00000000 l    df *ABS*	00000000 alt_write.c
0323b404 l     F .text	00000060 alt_get_errno
00000000 l    df *ABS*	00000000 altera_nios2_irq.c
00000040 l       *ABS*	00000000 OSCtxSw_SWITCH_PC
00000000 l    df *ABS*	00000000 os_cpu_c.c
00000014 l       *ABS*	00000000 OSTCBNext_OFFSET
00000032 l       *ABS*	00000000 OSTCBPrio_OFFSET
00000000 l       *ABS*	00000000 OSTCBStkPtr_OFFSET
00000000 l    df *ABS*	00000000 altera_avalon_cfi_flash_amd.c
0323bd1c l     F .text	000000bc alt_write_word_amd
0323bbf8 l     F .text	00000124 alt_wait_for_command_to_complete_amd
00000000 l    df *ABS*	00000000 altera_avalon_cfi_flash_intel.c
0323bfd0 l     F .text	0000018c alt_unlock_block_intel
0323c15c l     F .text	000000dc alt_write_word_intel
00000000 l    df *ABS*	00000000 eth_ocm_phy.c
03255668 l     O .bss	0000000c eth_ocm_phy_profile_array
0323c430 l     F .text	00000074 eth_ocm_wait
00000000 l    df *ABS*	00000000 eth_ocm_phy_profiles.c
0323c77c l     F .text	000000bc phy_cfg_MVL88E1111
03252738 l     O .rwdata	00000060 profile_MVL88E1111
03252798 l     O .rwdata	00000060 profile_DP83848C
00000000 l    df *ABS*	00000000 allports.c
03254d50 l     O .bss	00000004 inside_pktdemux
00000000 l    df *ABS*	00000000 timeouts.c
0323cd0c l     F .text	00000198 check_interval_timers
03254d5c l     O .bss	00000004 numtimers
00000000 l    df *ABS*	00000000 tk_misc.c
00000000 l    df *ABS*	00000000 alt_iniche_fcntl.c
00000000 l    df *ABS*	00000000 et_arp.c
03254d60 l     O .bss	00000004 arp_timer
03254d78 l     O .bss	00000004 cachetime
00000000 l    df *ABS*	00000000 iface.c
00000000 l    df *ABS*	00000000 ip.c
03252ab8 l     O .rwdata	00000004 uid
00000000 l    df *ABS*	00000000 ip_reasm.c
00000000 l    df *ABS*	00000000 ipdemux.c
00000000 l    df *ABS*	00000000 ipmc.c
00000000 l    df *ABS*	00000000 ipport.c
00000000 l    df *ABS*	00000000 ipraw.c
00000000 l    df *ABS*	00000000 iproute.c
00000000 l    df *ABS*	00000000 udp.c
03254da8 l     O .bss	00000002 usocket
00000000 l    df *ABS*	00000000 igmp.c
00000000 l    df *ABS*	00000000 igmp2.c
00000000 l    df *ABS*	00000000 ipopt.c
00000000 l    df *ABS*	00000000 u_mctest.c
03252ac0 l     O .rwdata	00000004 iCounter.4549
00000000 l    df *ABS*	00000000 dhcsetup.c
00000000 l    df *ABS*	00000000 memdev.c
00000000 l    df *ABS*	00000000 parseip.c
03255674 l     O .bss	0000001e nearBuf.4227
00000000 l    df *ABS*	00000000 tcpcksum.c
00000000 l    df *ABS*	00000000 in_pcb.c
00000000 l    df *ABS*	00000000 vfsfiles.c
00000000 l    df *ABS*	00000000 vfsport.c
00000000 l    df *ABS*	00000000 alt_busy_sleep.c
00000000 l    df *ABS*	00000000 alt_fcntl.c
0324a81c l     F .text	00000060 alt_get_errno
00000000 l    df *ABS*	00000000 alt_icache_flush.c
00000000 l    df *ABS*	00000000 icmp.c
03252970 l     O .rwdata	00000018 dsts
00000000 l    df *ABS*	00000000 atexit.c
00000000 l    df *ABS*	00000000 atoi.c
00000000 l    df *ABS*	00000000 calloc.c
00000000 l    df *ABS*	00000000 exit.c
00000000 l    df *ABS*	00000000 malloc.c
00000000 l    df *ABS*	00000000 memcmp.c
00000000 l    df *ABS*	00000000 strcpy.c
00000000 l    df *ABS*	00000000 strncmp.c
00000000 l    df *ABS*	00000000 strncpy.c
00000000 l    df *ABS*	00000000 vprintf.c
00000000 l    df *ABS*	00000000 vsprintf.c
00000000 l    df *ABS*	00000000 __atexit.c
00000000 l    df *ABS*	00000000 __call_atexit.c
0324c148 l     F .text	00000004 register_fini
00000000 l    df *ABS*	00000000 alt_exit.c
0324c2fc l     F .text	00000040 alt_sim_halt
03207044 g     F .text	0000001c putchar
0325d208 g     O .bss	00000014 soq
0320e124 g     F .text	00000094 _mprec_log10
03252a02 g     O .rwdata	00000002 OSTaskNameSize
0320e210 g     F .text	00000088 __any_on
0320da40 g     F .text	00000070 _isatty_r
0324e43c g     O .rodata	00000028 __mprec_tinytens
0323ebf4 g     F .text	00000780 ip_write_internal
03214dc0 g     F .text	000000c8 alt_main
0324bd34 g     F .text	0000008c strcpy
0322a640 g     F .text	000000ac pk_free
03207068 g     F .text	000000a0 _puts_r
0321e29c g     F .text	00000048 alt_read_query_entry_32bit
0325d5a4 g     O .bss	00000100 alt_irq
0323c4a4 g     F .text	000002d8 eth_ocm_phy_init
03252810 g     O .rwdata	00000009 rtp_priority
0320dba0 g     F .text	00000078 _lseek_r
0324b890 g     F .text	00000334 icmp_timex
0322bfcc g     F .text	00000044 m_freem
0324a034 g     F .text	00000048 vgetc
0322b068 g     F .text	0000001c clock_c
03254d30 g     O .bss	00000004 tcp_optionbuf
0323e6bc g     F .text	00000084 if_getbynum
03219870 g     F .text	000000d0 OS_MemInit
03254cd0 g     O .bss	00000004 dsc_rlyerrs
03254cc0 g     O .bss	00000004 dsc_releases
0321da24 g     F .text	000002c0 alt_flash_cfi_write
03226d68 g     F .text	00000074 TK_OSTaskQuery
0322ad5c g       .text	00000000 asm_cksum
03252ad0 g       *ABS*	00000000 __flash_rwdata_start
0321d7b0 g     F .text	00000064 OSTimeSet
03249f14 g     F .text	00000120 vgetc_locked
0322b8a8 g     F .text	00000020 post_task_setup
032425ec g     F .text	00000354 ipr_stats
03239290 g     F .text	00000134 tcp_attach
03252a4c g     O .rwdata	00000004 reqlist_len
0322d478 g     F .text	00000084 tcp_tick
03225fb4 g     F .text	00000074 print_ipad
03226c64 g     F .text	00000104 tcp_wakeup
0320d6a8 g     F .text	000000a0 __sflags
032138c8 g     F .text	00000088 __eqdf2
03254bd4 g     O .bss	00000004 last_flash_sector_offset
03254c7c g     O .bss	00000004 igmp_timers_are_running
032361b0 g     F .text	0000012c tcp_pulloutofband
032157bc g     F .text	000006b4 OSEventPendMulti
0325d89c g       *ABS*	00000000 __alt_heap_start
0323b864 g     F .text	00000020 OSTaskCreateHook
03229e2c g     F .text	00000074 dhc_ifacedone
03242994 g     F .text	00000400 ip_rcv
03249c64 g     F .text	0000017c vfseek
03232010 g     F .text	00000120 soqremque
03255694 g     O .bss	00002000 task1_stk
032447e4 g     F .text	00000858 udpdemux
03206de0 g     F .text	00000044 printf
03254d7c g     O .bss	00000004 rt_mib
032529da g     O .rwdata	00000002 OSMboxEn
03229d3c g     F .text	00000060 dhc_state_init
0324bff0 g     F .text	00000024 vsprintf
03215ec4 g     F .text	0000007c OSIntEnter
03200000 g       *ABS*	00000000 __alt_mem_sram
03207bb0 g     F .text	00000068 __sseek
03204b8c g     F .text	000000a4 __sinit
03243938 g     F .text	00000118 in_delmulti
0320bb6c g     F .text	00000130 __swbuf_r
03254d94 g     O .bss	00000004 so_evtmap_create
032529ea g     O .rwdata	00000002 OSQEn
032481e4 g     F .text	00000094 in_pcballoc
03252a68 g     O .rwdata	00000002 socket_defaults
0320db00 g     F .text	00000084 _setlocale_r
0323d4e8 g     F .text	00000498 send_arp
03204c8c g     F .text	00000068 __sfmoreglue
03248cd0 g     F .text	00000368 vfopen_locked
03211320 g     F .text	0000001c ungetc
03215478 g     F .text	000000d0 __malloc_unlock
0323b8c0 g     F .text	0000001c OSTaskStatHook
0323cbf0 g     F .text	00000058 prep_modules
032254ec g     F .text	000001b8 bsd_i_sockoptlen
03254c18 g     O .bss	00000001 OSLockNesting
03252a44 g     O .rwdata	00000004 xids
0320efc0 g     F .text	000014e4 _strtod_r
03207dd4 g     F .text	00000674 strerror
03249230 g     F .text	00000040 vfclose
0325d2a8 g     O .bss	0000002c tcb
03252a28 g     O .rwdata	00000002 OSDataSize
0323afac g     F .text	00000038 alt_remap_cached
03254c19 g     O .bss	00000001 OSRunning
0323e3f0 g     F .text	000002cc grat_arp
032018fc g     F .text	000001e0 get_ip_addr
03247bfc g     F .text	000000ac inet_pton
0323e820 g     F .text	0000009c reg_type
0325cdac g     O .bss	000000f0 dhc_states
032242f4 g     F .text	0000019c igmp_fasttimo
032493f4 g     F .text	0000005c vunlink_flag_open_files
03229ae4 g     F .text	00000088 dhc_halt
03254cb4 g     O .bss	00000004 dsc_acks
0325d2d4 g     O .bss	000000e0 tcpstat
03241e9c g     F .text	0000035c ip_reasm_copy_queued_fragments_into_reassy_buffer
0322c55c g     F .text	000000a8 dtom
03237828 g     F .text	000000fc tcp_setpersist
0322ec04 g     F .text	000001a4 t_getsockopt
03206b70 g     F .text	000000e0 memmove
03254cc4 g     O .bss	00000004 dsc_naks
0322ca00 g     F .text	000005f8 ip_output
0323b904 g     F .text	0000001c OSInitHookBegin
0324bbc4 g     F .text	00000054 icmp_du
03252a40 g     O .rwdata	00000004 num_net_tasks
03254db8 g     O .bss	00000004 vfiles
03252a20 g     O .rwdata	00000002 OSTmrSize
032472f8 g     F .text	00000104 dhc_main_ipset
03204c7c g     F .text	00000010 _cleanup
03240f94 g     F .text	000002e0 ip_reasm_process_first_fragment
0320e298 g     F .text	000000bc _Balloc
03201fc0 g     F .text	0000027c get_board_mac_addr
03254c1c g     O .bss	00000004 OSIdleCtr
03246210 g     F .text	000005f0 ip_setmoptions
032139d8 g     F .text	00000088 __gtdf2
032476bc g     F .text	0000002c md_fseek
0323b530 g       .text	00000000 OSStartTsk
00000000  w      *UND*	00000000 __errno
03217390 g     F .text	000002e0 OS_TCBInit
03241274 g     F .text	000000a0 ip_reassm
03229b6c g     F .text	000001d0 dhc_reclaim
0321e428 g     F .text	00000048 alt_write_flash_command_32bit_device_16bit_mode
0325d594 g     O .bss	00000010 udp_mib
03200000 g     F .entry	0000001c __reset
0322f43c g     F .text	000000e4 t_shutdown
03203870 g     F .text	000001ec sss_handle_receive
0322ee98 g     F .text	00000150 t_recvfrom
03252a26 g     O .rwdata	00000002 OSTmrWheelTblSize
032469f4 g     F .text	0000067c u_mctest_run
03243ac0 g     F .text	00000094 prep_ifaces
03200020 g       *ABS*	00000000 __flash_exceptions_start
03254c98 g     O .bss	00000001 to_netmain
0322a2ac g     F .text	000000dc pk_alloc
032529c6 g     O .rwdata	00000002 OSEventSize
03200ac8 g     F .text	000002ec alt_SSSErrorHandler
03254c20 g     O .bss	00000001 OSPrioHighRdy
03205884 g     F .text	00000074 _fstat_r
032269dc g     F .text	0000004c tk_nettick
0323b884 g     F .text	00000020 OSTaskDelHook
0321df40 g     F .text	000002d8 alt_flash_program_block
03254be0 g     O .bss	00000004 errno
0320793c g     F .text	00000014 __srget
03222a58 g     F .text	000000e8 eth_ocm_close
0323333c g     F .text	000000cc in_pcbnotify
0320ba6c g     F .text	00000024 __svfscanf
0323b510 g       .text	00000000 OSStartHighRdy
0325ce9c g     O .bss	00000014 lilfreeq
0320020c g     F .text	00000624 alt_uCOSIIErrorHandler
03243b7c g     F .text	00000028 evtmap_setup
0321bf84 g     F .text	00000200 OSTaskCreateExt
03254c9c g     O .bss	00000004 tcp_sleep_timeout
03232a3c g     F .text	000001d0 sbdrop
03254d90 g     O .bss	00000004 net_system_exit
0325d6a4 g     O .bss	00000068 icmp_mib
0323837c g     F .text	00000078 tcp_getseq
03243f8c g     F .text	000000cc ip_raw_alloc
032187f0 g     F .text	00000068 OSFlagPendGetFlagsRdy
03252a06 g     O .rwdata	00000002 OSTaskStatStkSize
03228208 g     F .text	00000b3c dhc_request
032306c8 g     F .text	000007e4 soreceive
032141c0 g     F .text	0000002c __make_fp
032177fc g     F .text	00000334 OSFlagAccept
03219fa8 g     F .text	000000c8 OSQFlush
03219940 g     F .text	00000154 OSQAccept
03254c00 g     O .bss	00000004 alt_argv
0325a988 g       *ABS*	00000000 _gp
03242940 g     F .text	00000054 ip_reasm_send_icmp_timex
0323b1cc g     F .text	00000118 usleep
03249270 g     F .text	00000048 vfflush
0325d1b0 g     O .bss	00000040 resid_semaphore
03225e6c g     F .text	00000148 hexdump
03240e4c g     F .text	000000a8 ip_reasm_incr_mem_useage
0322b900 g     F .text	00000034 calloc2
032249a4 g     F .text	0000007c igmp_leavegroup
0321bdb0 g     F .text	000001d4 OSTaskCreate
03201088 g     F .text	00000058 set_image_size
0321b83c g     F .text	00000574 OSTaskChangePrio
03254c14 g     O .bss	00000004 alt_heapsem
032381c8 g     F .text	000000e8 tcp_close
03217670 g     F .text	0000018c OSDebugInit
0321c184 g     F .text	0000040c OSTaskDel
0324a490 g     F .text	0000006c vferror
032454f4 g     F .text	000000c0 udp_alloc
032525b8 g     O .rwdata	00000180 alt_fd_list
032597dc g     O .bss	00000370 OSFlagTbl
03254d1c g     O .bss	00000008 mbstat
03206088 g     F .text	00000090 _getc_r
03205ff0 g     F .text	00000098 getc
03207060 g     F .text	00000008 _putchar_r
03216940 g     F .text	000000b8 OS_EventTaskRemove
03245e00 g     F .text	00000158 igmpv2_chk_set_timer
03226a28 g     F .text	0000002c TK_OSTimeDly
03259694 g     O .bss	00000048 trackers
0323a858 g     F .text	00000094 alt_find_dev
03206ad0 g     F .text	000000a0 memcpy
03254ccc g     O .bss	00000004 dsc_rebind
03211d30 g     F .text	00000248 __hexnan
0323d0ec g     F .text	00000080 task_stats
0322df28 g     F .text	0000004c DOMAIN_CHECK
0322cff8 g     F .text	00000040 in_broadcast
032529f0 g     O .rwdata	00000002 OSRdyTblSize
032010e0 g     F .text	00000050 get_image_exposure
03254db4 g     O .bss	00000004 vfsystems
03245424 g     F .text	000000d0 udp_socket
03254c6c g     O .bss	00000004 MaxMtu
03232fd0 g     F .text	00000158 sock_selscan
03204c70 g     F .text	0000000c _cleanup_r
03213bf8 g     F .text	000000f8 __floatsidf
03240bf8 g     F .text	000000d0 ip_reasm_match_frag_with_ire
03232180 g     F .text	00000050 socantrcvmore
032026c0 g     F .text	000010f0 sss_exec_command
03206dcc g     F .text	00000014 perror
0323abf4 g     F .text	00000078 alt_io_redirect
03213ae8 g     F .text	00000088 __ltdf2
03254cf8 g     O .bss	00000004 netq_intmask
03247b8c g     F .text	00000070 hextoa
0324c36c g       *ABS*	00000000 __DTOR_END__
0322f214 g     F .text	00000228 t_send
0323a438 g     F .text	000000fc alt_close
03254d24 g     O .bss	00000002 select_wait
03207108 g     F .text	00000014 puts
03226500 g     F .text	00000044 std_out
0324a07c g     F .text	00000138 vfslookup_locked
0322feb0 g     F .text	0000009c soaccept
03215548 g     F .text	00000130 OSEventNameGet
032529d4 g     O .rwdata	00000002 OSFlagMax
0320dc98 g     F .text	00000040 mbrtowc
0323b464 g     F .text	00000020 altera_nios2_irq_init
0325d21c g     O .bss	0000003c tcpmib
0322f688 g     F .text	0000009c t_errno
03243ba4 g     F .text	000000f0 ip_raw_open
0320ba90 g     F .text	00000068 _vfscanf_r
032290a8 g     F .text	00000118 dhc_decline
0320e074 g     F .text	000000b0 __ratio
03215f40 g     F .text	00000100 OSIntExit
03252abc g     O .rwdata	00000004 ipRoutes
0324939c g     F .text	00000058 vfeof
03238694 g     F .text	0000005c tcp_canceltimers
032279d0 g     F .text	0000021c dhc_buildheader
03252a0e g     O .rwdata	00000002 OSTCBSize
03254c21 g     O .bss	00000001 OSPrioCur
0321fe7c g     F .text	000002c0 altera_avalon_jtag_uart_read
0324bcac g     F .text	00000014 malloc
03254db0 g     O .bss	00000004 inpcb_cachemiss
03206e24 g     F .text	00000034 _printf_r
03247d94 g     F .text	000000c4 inet46_addr
03254dac g     O .bss	00000004 inpcb_cachehits
032047c0 g     F .text	00000008 __udivsi3
03252578 g     O .rwdata	0000000b tcp_outflags
03214a64 g     F .text	000000c0 isatty
032529f4 g     O .rwdata	00000002 OSStkWidth
0320dab0 g     F .text	0000002c iswspace
0324e34c g     O .rodata	000000c8 __mprec_tens
03248b2c g     F .text	0000007c vf_alloc_and_link_vop
032529e8 g     O .rwdata	00000002 OSPtrSize
03254d80 g     O .bss	00000004 ipr_curr_mem
03223f80 g     F .text	0000006c exit_hook
032217b0 g     F .text	000000b0 get_search_window
03254c80 g     O .bss	00000004 igmp_cticks
03254d0c g     O .bss	00000004 mheap_sem_ptr
03236548 g     F .text	00000048 ip4_tcpmss
0320dadc g     F .text	00000008 __locale_charset
032529c8 g     O .rwdata	00000002 OSEventTblSize
0325d518 g     O .bss	00000014 netlist
03230eac g     F .text	000000a8 soshutdown
03212010 g     F .text	000000a4 __fixunsdfsi
032014e8 g     F .text	00000100 select_vga_output
0323b484 g       .text	00000000 OSCtxSw
0323cb80 g     F .text	0000004c packet_check
03228d44 g     F .text	00000280 dhc_setip
0324a87c g     F .text	00000090 alt_icache_flush
0325d258 g     O .bss	00000014 mbufq
0322fe60 g     F .text	00000050 soabort
03254be4 g     O .bss	00000004 __malloc_top_pad
03254c24 g     O .bss	00000004 OSTCBList
0322a930 g     F .text	00000110 qdel
032214e8 g     F .text	000001c4 get_current_corners
0323c9f8 g     F .text	0000014c station_state
032440f4 g     F .text	00000184 rt_lookup
03254d3c g     O .bss	00000004 alt_fd_list_lock
03210d94 g     F .text	00000024 strtoul
0325299c g     O .rwdata	00000004 __mb_cur_max
03224a20 g     F .text	0000035c igmp_validate
0320dae4 g     F .text	0000000c _localeconv_r
03223c9c g     F .text	000002e4 ip_startup
03210db8 g     F .text	000002f0 _strtoull_r
0322e264 g     F .text	00000298 t_accept
03231c00 g     F .text	0000008c soisdisconnecting
0320e990 g     F .text	0000003c __i2b
032058f8 g     F .text	0000049c __sfvwrite_r
03223654 g     F .text	000003d4 pktdemux
03259b4c g     O .bss	00000c30 OSMemTbl
03254c28 g     O .bss	00000001 OSTickStepState
0322af20 g     F .text	000000ac kbhit
0322ea28 g     F .text	000001dc t_setsockopt
03207950 g     F .text	00000070 _sbrk_r
0323bdd8 g     F .text	00000084 alt_program_intel
032527f8 g     O .rwdata	00000018 icmpdu_types
03249450 g     F .text	00000220 vunlink
032529ec g     O .rwdata	00000002 OSQMax
03225cac g     F .text	000000b0 ccksum
03248ba8 g     F .text	000000d8 vf_alloc_buffer
03254da4 g     O .bss	00000004 cachedRoute
03252a50 g     O .rwdata	00000004 lilbufs
0325a77c g     O .bss	00000800 OSTaskStatStk
032476e8 g     F .text	00000024 md_ftell
03225d5c g     F .text	00000068 cksum
03219458 g     F .text	0000010c OSMemNameGet
0322fa3c g     F .text	00000130 sofree
03254c74 g     O .bss	00000004 ifNumber
032529cc g     O .rwdata	00000002 OSFlagEn
0320ed0c g     F .text	00000078 _read_r
032214a8 g     F .text	00000040 locator_init
03252a12 g     O .rwdata	00000002 OSTimeTickHookEn
0323a594 g     F .text	00000078 alt_dcache_flush
0321a50c g     F .text	00000180 OSQPost
0321908c g     F .text	000000ac OS_FlagUnlink
0325121c g     O .rwdata	0000000c __lc_ctype
03252a90 g     O .rwdata	00000004 alt_max_fd
0321e218 g     F .text	00000040 alt_read_query_entry_8bit
03216f1c g     F .text	0000006c OS_MemCopy
03252a58 g     O .rwdata	00000004 bigbufs
032393c4 g     F .text	000000d4 tcp_disconnect
03216f88 g     F .text	000000d4 OS_Sched
03214500 g     F .text	00000138 __unpack_d
032047d0 g     F .text	00000110 _fclose_r
03219354 g     F .text	00000104 OSMemGet
03204224 g     F .text	000000b4 get_search_window_of_tracker
0321c8b8 g     F .text	000001c4 OSTaskNameSet
0323be5c g     F .text	00000174 alt_erase_block_intel
03204af0 g     F .text	00000034 fflush
03254be8 g     O .bss	00000004 __malloc_max_sbrked_mem
03254c2c g     O .bss	00000004 OSCtxSwCtr
0325cd24 g     O .bss	00000064 igmpstats
032015e8 g     F .text	00000060 write_in_lcd
0323b8dc g     F .text	00000028 OSTimeTickHook
03228104 g     F .text	00000104 dhc_rx_offer
032256a4 g     F .text	00000120 bsd_getsockopt
0323ac6c g     F .text	000001c0 alt_irq_register
032529d6 g     O .rwdata	00000002 OSFlagNameSize
0325d57c g     O .bss	00000018 ire_stats
03239634 g     F .text	000001b8 udp_soinput
0322a880 g     F .text	000000b0 putq
032169f8 g     F .text	00000104 OS_EventTaskRemoveMulti
03254c94 g     O .bss	00000004 iniche_net_ready
03213238 g     F .text	00000074 __adddf3
03212c40 g     F .text	00000078 __nesf2
032167ec g     F .text	00000154 OS_EventTaskWaitMulti
0324a448 g     F .text	00000048 isvfile
03231054 g     F .text	000004c0 sosetopt
03226860 g     F .text	000000f4 netmain
03236590 g     F .text	0000011c tcp_mss
0320df54 g     F .text	00000120 __b2d
03247808 g     F .text	0000031c parse_ipad
03248b0c g     F .text	00000020 get_vfopen_error
032529ee g     O .rwdata	00000002 OSQSize
03212690 g     F .text	000005b0 __umoddi3
03214c70 g     F .text	000000f0 lseek
0323cc48 g     F .text	000000c4 inet_timer
0321b0e8 g     F .text	0000027c OSSemPend
032023f0 g     F .text	000002d0 sss_send_menu
03252990 g     O .rwdata	00000004 _global_impure_ptr
03226198 g     F .text	00000164 print_eth
03249038 g     F .text	00000050 vfopen
0323ae2c g     F .text	00000120 alt_read
0320711c g     F .text	000005f4 _realloc_r
03200830 g     F .text	00000298 alt_NetworkErrorHandler
032529d8 g     O .rwdata	00000002 OSLowestPrio
0325d89c g       *ABS*	00000000 __bss_end
0322be98 g     F .text	00000134 m_free
0323b958 g     F .text	00000020 OSTCBInitHook
0322a388 g     F .text	000002b8 pk_validate
03252a1e g     O .rwdata	00000002 OSTmrCfgTicksPerSec
0323b0bc g     F .text	00000110 alt_tick
03248888 g     F .text	0000025c in_pcblookup
03229f50 g     F .text	000000cc find_opt
032596dc g     O .bss	00000100 __hexdig
032120b4 g     F .text	000005dc __udivdi3
0322bcf0 g     F .text	000001a8 m_getnbuf
0322a70c g     F .text	000000ac dump_buf_estats
03254d74 g     O .bss	00000004 arpRepsOut
032529c0 g     O .rwdata	00000002 OSEventEn
0324e414 g     O .rodata	00000028 __mprec_bigtens
0320ebec g     F .text	00000120 __s2b
03252a1a g     O .rwdata	00000002 OSTmrCfgNameSize
03213e3c g     F .text	00000194 __floatunsidf
0323c874 g     F .text	000000fc netmain_init
0320de74 g     F .text	00000060 __mcmp
03254cb0 g     O .bss	00000004 dsc_requests
03237b7c g     F .text	00000488 tcp_respond
03239a70 g     F .text	0000033c udp4_sockbind
03252988 g     O .rwdata	00000004 __ctype_ptr
03254cfc g     O .bss	00000004 old_mode
03224738 g     F .text	0000026c igmp_joingroup
0322d120 g     F .text	00000358 so_icmpdu
03204c58 g     F .text	00000018 __fp_lock_all
03254dc4 g     O .bss	00000004 vfs_dir_stale
032421f8 g     F .text	000000e4 ip_reasm_process_timer_tick
0324a4fc g     F .text	0000005c vclearerr
03225bc0 g     F .text	000000ec bsd_setsockopt
0322c504 g     F .text	00000058 mbuf_len
03218e98 g     F .text	000000e4 OS_FlagInit
0323b024 g     F .text	00000098 alt_alarm_stop
0324a1fc g     F .text	000001e8 strippath
03252a48 g     O .rwdata	00000004 reqlist
03226ac4 g     F .text	000001a0 tcp_sleep
03210828 g     F .text	00000024 strtol
032271a0 g     F .text	00000830 dhc_upcall
03239498 g     F .text	000000e0 tcp_usrclosed
03254ce8 g     O .bss	00000004 cticks_factor
032529fc g     O .rwdata	00000002 OSTaskIdleStkSize
032482cc g     F .text	00000254 in_pcbbind
0320438c g     F .text	0000017c get_current_windows_of_activated_trackers
03254d40 g     O .bss	00000004 alt_irq_active
0321ac74 g     F .text	000000c0 OSSemAccept
03219684 g     F .text	000000f0 OSMemPut
03219138 g     F .text	0000021c OSMemCreate
03254c30 g     O .bss	00000004 OSIdleCtrMax
032000ec g     F .exceptions	000000d4 alt_irq_handler
03252590 g     O .rwdata	00000028 alt_dev_null
032509d4 g     O .rwdata	00000028 camera
03252a6a g     O .rwdata	00000001 tcprexmtthresh
03252a10 g     O .rwdata	00000002 OSTicksPerSec
0323e8bc g     F .text	00000098 if_killsocks
0323f374 g     F .text	00000248 ip_write
03242d94 g     F .text	0000060c ip_rcv_phase2
0322e7e8 g     F .text	00000044 t_getsockname
0322e4fc g     F .text	000002a8 t_connect
03221a1c g     F .text	00000394 eth_ocm_init
03252a64 g     O .rwdata	00000004 TCPTV_MSL
0325ceb0 g     O .bss	00000010 memestats
0322afcc g     F .text	00000060 getch
03214050 g     F .text	000000c8 __unpack_f
0321e730 g     F .text	000000ac alt_set_flash_algorithm_func
032528f0 g     O .rwdata	00000080 vfs_root_path
0322e7a4 g     F .text	00000044 t_getpeername
03240ef4 g     F .text	000000a0 ip_reasm_decr_mem_useage
0323230c g     F .text	00000080 soreserve
0323b484 g       .text	00000000 OSIntCtxSw
0322b934 g     F .text	000000f4 npalloc
0323a60c g     F .text	00000044 alt_dcache_flush_all
0320dd40 g     F .text	00000070 __hi0bits
03254da0 g     O .bss	00000004 ipraw_eps
0322a01c g     F .text	00000290 pk_init
032474bc g     F .text	00000180 md_fread
0324bc44 g     F .text	0000001c calloc
03213cf0 g     F .text	000000d8 __fixdfsi
0325d3b4 g     O .bss	00000064 intimers
032323ec g     F .text	00000048 sbrelease
03233470 g     F .text	000000f0 ifd_clr
03232d1c g     F .text	00000094 sbdroprecord
032262fc g     F .text	00000080 uslash
0323b2e4 g     F .text	00000120 alt_write
0321e2e4 g     F .text	0000003c alt_write_flash_command_8bit_device_8bit_mode
03254d70 g     O .bss	00000004 arpRepsIn
03227010 g     F .text	00000090 dhc_get_srv_ipaddr
0323cea4 g     F .text	0000017c in_timerset
032105c8 g     F .text	0000001c strtod
03254c34 g     O .bss	00000004 OSTCBFreeList
03252ad0 g       *ABS*	00000000 __ram_rwdata_end
0321b364 g     F .text	0000017c OSSemPendAbort
032366ac g     F .text	0000117c tcp_output
03254d4c g     O .bss	00000004 activehost
03252a88 g     O .rwdata	00000008 alt_dev_list
03226634 g     F .text	0000022c parse_args
03254d00 g     O .bss	00000004 global_TCPwakeup_setIndx
0320d7ac g     F .text	00000058 _fputc_r
03222d50 g     F .text	00000070 write
0322ba28 g     F .text	000000b8 npfree
03206f5c g     F .text	000000e8 _putc_r
0323dc3c g     F .text	00000294 arpReply
03225df0 g     F .text	0000007c nextarg
03252a14 g     O .rwdata	00000002 OSVersionNbr
032418a4 g     F .text	00000594 ip_reasm_process_subsequent_fragments
03252ac8 g     O .rwdata	00000004 pton_error
03254ca4 g     O .bss	00000004 dsc_errors
03212cb8 g     F .text	00000078 __gtsf2
03257694 g     O .bss	00002000 SSSInitialTaskStk
0325ca00 g     O .bss	00000014 rcvdq
03233408 g     F .text	00000068 tcp_notify
032509d4 g       *ABS*	00000000 __ram_rodata_end
03214930 g     F .text	000000d4 fstat
03204ef4 g     F .text	0000002c fprintf
0322ff4c g     F .text	000000d4 soconnect
03244098 g     F .text	0000005c ip_raw_maxalloc
03213b70 g     F .text	00000088 __ledf2
03227bec g     F .text	00000518 dhc_discover
0321f5e4 g     F .text	000000dc alt_check_primary_table
0324880c g     F .text	0000007c in_setpeeraddr
032529bc g     O .rwdata	00000004 OSEndiannessTest
0322b02c g     F .text	0000003c clock_init
032492b8 g     F .text	000000e4 vfgets
0323d270 g     F .text	0000017c et_send
0320eacc g     F .text	00000120 __pow5mult
03254bf0 g     O .bss	00000004 __nlocale_changed
032047c8 g     F .text	00000008 __umodsi3
0321dd74 g     F .text	00000068 alt_flash_cfi_read
0321e4b8 g     F .text	00000034 alt_write_native_8bit
03247b24 g     F .text	00000068 inet_addr
03240db4 g     F .text	00000098 ip_reasm_check_mem_useage
03230f54 g     F .text	00000100 sorflush
0324bf80 g     F .text	00000020 vprintf
0325cfc4 g     O .bss	000000fc global_tcb_ext
0323fa44 g     F .text	00000488 ip_fragment_lc
0325ca14 g     O .bss	00000300 netstatic
0322e004 g     F .text	0000017c t_bind
03201440 g     F .text	000000a8 select_sensor_output
032529ce g     O .rwdata	00000002 OSFlagGrpSize
0322ac78 g     F .text	000000e4 udp_close
0322b618 g     F .text	0000021c alt_iniche_init
0323c2a8 g     F .text	00000074 eth_ocm_write_phy_reg
0325d89c g       *ABS*	00000000 end
0322b250 g     F .text	00000088 UNLOCK_NET_RESOURCE
0322eda8 g     F .text	000000f0 t_recv
03214700 g     F .text	00000160 __pack_f
0321e320 g     F .text	0000007c alt_write_flash_command_16bit_device_8bit_mode
03220bec g     F .text	00000538 altera_avalon_lcd_16207_write
03249670 g     F .text	000001ac vfread
0322356c g     F .text	000000e8 netclose
03203a5c g     F .text	000001ac SSSSimpleSocketServerTask
0324bc2c g     F .text	0000000c _atoi_r
03205860 g     F .text	00000024 fseek
0321e858 g     F .text	000005e0 alt_read_cfi_table
03252a74 g     O .rwdata	00000004 tcp_keepintvl
0321f808 g     F .text	00000130 altera_avalon_jtag_uart_init
03217200 g     F .text	000000c8 OS_TaskStat
03254ca8 g     O .bss	00000004 dsc_discovers
03252530 g     O .rwdata	00000018 tcp_protosw
0324c368 g       *ABS*	00000000 __CTOR_LIST__
03254dc0 g     O .bss	00000004 vfopen_error
03400000 g       *ABS*	00000000 __alt_stack_pointer
03254d34 g     O .bss	00000004 tcp_maxidle
03254cd4 g     O .bss	00000004 firstudp
03221420 g     F .text	00000088 alt_avalon_timer_sc_init
03213fd0 g     F .text	00000080 __clzsi2
03204508 g     F .text	0000017c get_current_corners_of_activated_trackers
0322013c g     F .text	000002dc altera_avalon_jtag_uart_write
0321d950 g     F .text	0000009c alt_flash_cfi_init
03204b7c g     F .text	00000004 __sfp_lock_acquire
032069ec g     F .text	000000e4 memchr
03216ec8 g     F .text	00000054 OS_MemClr
0320851c g     F .text	00001eac ___vfprintf_internal_r
0323b554 g     F .text	00000310 OSTaskStkInit
03201648 g     F .text	00000088 task1
03207a34 g     F .text	00000060 _sprintf_r
03205110 g     F .text	00000314 _free_r
03245f58 g     F .text	00000170 igmpv2_chk4_rtr_alert_opt
03200f14 g     F .text	0000011c write_camera_registers
0322f520 g     F .text	000000d0 t_socketclose
03216548 g     F .text	00000194 OS_EventTaskRdy
0324c14c g     F .text	000001b0 __call_exitprocs
032078f0 g     F .text	0000004c __srget_r
03203cc0 g     F .text	000000a0 trackers_free
03254c38 g     O .bss	00000001 OSCPUUsage
0325cd14 g     O .bss	00000010 nets
0322b190 g     F .text	000000c0 LOCK_NET_RESOURCE
03228fc4 g     F .text	000000e4 dhc_resetip
03254bf4 g     O .bss	00000004 __mlocale_changed
0322df74 g     F .text	00000090 t_socket
03252998 g     O .rwdata	00000004 __malloc_sbrk_base
032001c0 g     F .text	0000004c _start
0323d21c g     F .text	00000054 etainit
03254d44 g     O .bss	00000004 _alt_tick_rate
0323cbcc g     F .text	00000024 mcastlist
0321a070 g     F .text	00000320 OSQPend
032042d8 g     F .text	000000b4 get_current_corners_of_tracker
0325cec0 g     O .bss	000000f0 pktlog
0321084c g     F .text	00000318 _strtoll_r
03245a68 g     F .text	0000014c igmpv2_process_report
032335d4 g     F .text	00000080 ifd_isset
032446a0 g     F .text	00000144 del_route
032084bc g     F .text	00000008 _user_strerror
0321d27c g     F .text	0000014c OSTimeDly
032228ec g     F .text	0000016c eth_ocm_stats
0323c238 g     F .text	00000070 eth_ocm_set_phy_addr
032017fc g     F .text	00000100 get_mac_addr
0322f94c g     F .text	000000f0 solisten
0320e65c g     F .text	0000014c __lshift
03254d48 g     O .bss	00000004 _alt_nticks
03201330 g     F .text	00000058 set_sensor_mode
03222cd8 g     F .text	00000078 read
0321d848 g     F .text	000000d0 alt_sys_init
032382b0 g     F .text	0000004c tcp_quench
0322637c g     F .text	00000184 ns_printf
03206ce8 g     F .text	00000078 _open_r
0323e740 g     F .text	000000e0 isbcast
0322b2d8 g     F .text	00000214 TK_NEWTASK
0324c014 g     F .text	00000134 __register_exitproc
03254c39 g     O .bss	00000001 OSTaskCtr
03240cc8 g     F .text	000000ec ip_reasm_determine_type_of_frag
0324bdc0 g     F .text	000000f0 strncmp
03201130 g     F .text	00000048 set_image_exposure
0321e258 g     F .text	00000044 alt_read_query_entry_16bit
0321d3c8 g     F .text	00000174 OSTimeDlyHMSM
0323afe4 g     F .text	00000040 alt_remap_uncached
03243c94 g     F .text	000000c0 ip_raw_close
0320e7a8 g     F .text	000001e8 __multiply
03252840 g     O .rwdata	000000b0 mdlist
0321fd14 g     F .text	00000074 altera_avalon_jtag_uart_close
032241fc g     F .text	000000f8 igmp_input
0323f96c g     F .text	000000d8 ip_raw_write
032509d4 g       *ABS*	00000000 __ram_rwdata_start
0324981c g     F .text	000003e8 vfwrite_locked
0324beb0 g     F .text	000000bc strncpy
0324c36c g       *ABS*	00000000 __ram_rodata_start
03254cac g     O .bss	00000004 dsc_offers
032555ec g     O .bss	00000028 __malloc_current_mallinfo
032529c2 g     O .rwdata	00000002 OSEventMax
03247e58 g     F .text	00000074 inet_setport
0321e550 g     F .text	000001e0 alt_set_flash_width_func
0320e354 g     F .text	0000017c __d2b
0321b4e0 g     F .text	00000128 OSSemPost
03236020 g     F .text	00000190 tcp_dooptions
03231b04 g     F .text	000000fc soisconnected
032160cc g     F .text	000000e4 OSSchedUnlock
03243b54 g     F .text	00000028 netexit
03201adc g     F .text	000001dc get_serial_number
03254c90 g     O .bss	00000004 nettick_wakes
03254d28 g     O .bss	00000001 tcpprintfs
0323d020 g     F .text	000000a8 in_timerkill
03245908 g     F .text	00000160 igmpv2_input
03254cbc g     O .bss	00000004 dsc_declines
0321f6c0 g     F .text	00000058 altera_avalon_jtag_uart_read_fd
03210b64 g     F .text	00000230 _strtoul_r
03225dc4 g     F .text	0000002c do_trap
0323aa0c g     F .text	000000f4 alt_get_fd
032257c4 g     F .text	00000104 bsd_ioctl
03254c3c g     O .bss	00000004 OSMemFreeList
03216220 g     F .text	000000ac OSStatInit
0322c814 g     F .text	000001ec tcp_rcv
03226154 g     F .text	00000044 panic
03254dc8 g     O .bss	00000004 vfs_open_files
0324a57c g     F .text	0000014c alt_busy_sleep
03223af8 g     F .text	000001a4 ip2mac
03218c00 g     F .text	000000d4 OSFlagQuery
03214638 g     F .text	000000c8 __fpcmp_parts_d
03233128 g     F .text	00000214 sock_select
03247070 g     F .text	00000288 dhc_setup
03237a0c g     F .text	00000058 tcp_init
03254d04 g     O .bss	00000004 cticks
03254c99 g     O .bss	00000001 to_nettick
032529f8 g     O .rwdata	00000002 OSTaskCreateExtEn
0320be6c g     F .text	00000070 _close_r
03222dc0 g     F .text	0000064c Netinit
0322b8c8 g     F .text	00000038 prep_armintcp
032437d0 g     F .text	00000168 in_addmulti
03237a64 g     F .text	00000118 tcp_template
0322c604 g     F .text	00000070 remque
0323b9e0 g     F .text	00000218 alt_erase_block_amd
0324bf6c g     F .text	00000014 _vprintf_r
032336c4 g     F .text	00000408 tcp_reass
03248018 g     F .text	000001cc tcp_cksum
03239dac g     F .text	000003dc udp4_socksend
03249088 g     F .text	000001a8 vfclose_locked
03233560 g     F .text	00000074 ifd_set
0324bcc0 g     F .text	00000074 memcmp
0321652c g     F .text	0000001c OS_Dummy
0321f770 g     F .text	00000048 altera_avalon_jtag_uart_close_fd
03229ea0 g     F .text	000000b0 dhc_set_state
03254c70 g     O .bss	00000004 NDEBUG
0325d89c g       *ABS*	00000000 __alt_stack_base
03254bd8 g     O .bss	00000004 last_flash_sector
0321f7b8 g     F .text	00000050 altera_avalon_jtag_uart_ioctl_fd
0323238c g     F .text	00000060 sbreserve
03243d54 g     F .text	00000238 ip_raw_input
03205f14 g     F .text	0000009c _fwrite_r
03200e1c g     F .text	000000f8 read_camera_registers
03252a54 g     O .rwdata	00000004 lilbufsiz
0323c838 g     F .text	0000003c eth_ocm_phy_profiles_init
03233654 g     F .text	00000070 ifd_get
03232270 g     F .text	0000009c sbwakeup
03207b24 g     F .text	00000084 sscanf
0320bd30 g     F .text	0000013c __swsetup_r
0321ee38 g     F .text	000007ac alt_read_cfi_width
0325af7c g     O .bss	000001e0 OSQTbl
032362dc g     F .text	0000026c tcp_xmit_timer
03213670 g     F .text	00000258 __divdf3
03204cf4 g     F .text	000000f0 __sfp
03201e84 g     F .text	0000013c generate_mac_addr
0323ea50 g     F .text	000001a4 ip_bldhead
0320e1b8 g     F .text	00000058 __copybits
03232434 g     F .text	000000a8 sbappend
03250e14 g     O .rwdata	00000408 __malloc_av_
03204b88 g     F .text	00000004 __sinit_lock_release
03254c40 g     O .bss	00000004 OSTCBHighRdy
032132ac g     F .text	000003c4 __muldf3
0323f5bc g     F .text	000003b0 ip_write2
03207c94 g     F .text	00000060 __sread
03252ab4 g     O .rwdata	00000004 arp_ageout
0320da00 g     F .text	00000040 fread
03254c44 g     O .bss	00000004 OSQFreeList
0323c38c g     F .text	000000a4 eth_ocm_phy_add_profile
0323e954 g     F .text	000000fc ip_init
0323a8ec g     F .text	00000120 alt_find_file
03244058 g     F .text	00000040 ip_raw_free
0323db28 g     F .text	00000114 make_arp_entry
0323a67c g     F .text	000000b4 alt_dev_llist_insert
03215370 g     F .text	00000108 __malloc_lock
03204f20 g     F .text	00000034 _fprintf_r
032151ac g     F .text	000000bc sbrk
032395c4 g     F .text	00000070 udp_lookup
03215678 g     F .text	00000144 OSEventNameSet
032048f4 g     F .text	000001fc _fflush_r
0321133c g     F .text	000000b4 _calloc_r
03254c48 g     O .bss	00000001 OSRdyGrp
03247474 g     F .text	00000028 md_fopen
03252548 g     O .rwdata	00000018 udp_protosw
032529a4 g     O .rwdata	00000008 alt_flash_dev_list
0321e3e4 g     F .text	00000044 alt_write_flash_command_16bit_device_16bit_mode
03248790 g     F .text	0000007c in_setsockaddr
03204ed8 g     F .text	0000001c fopen
03254bcc g       *ABS*	00000000 __bss_start
03203ca0 g     F .text	00000020 trackers_number
032324dc g     F .text	000000e0 sbappendrecord
0325d52c g     O .bss	00000050 ip_mib
03206c50 g     F .text	00000098 memset
03230020 g     F .text	000000a0 sodisconnect
03201780 g     F .text	0000007c main
03201228 g     F .text	00000058 get_sensor_size
03254c04 g     O .bss	00000004 alt_envp
03254bec g     O .bss	00000004 __malloc_max_total_mem
03202380 g     F .text	00000070 sss_reset_connection
0322c334 g     F .text	000001d0 m_adj
0321f718 g     F .text	00000058 altera_avalon_jtag_uart_write_fd
0320bc9c g     F .text	0000001c __swbuf
0324770c g     F .text	000000d8 md_fgetc
0324e5e8 g     O .rodata	00000100 OSUnMapTbl
0324059c g     F .text	000002b8 ip_dump
03226e08 g     F .text	00000208 tk_stats
03212d30 g     F .text	00000078 __ltsf2
0320d804 g     F .text	000001fc _fread_r
03252a30 g     O .rwdata	00000008 alt_iniche_dev_list
032211f0 g     F .text	00000164 altera_avalon_lcd_16207_init
032529f2 g     O .rwdata	00000002 OSSemEn
03254cec g     O .bss	00000004 OS_TPS
0322d740 g     F .text	000007e8 rawip_usrreq
03218858 g     F .text	000003a8 OSFlagPost
03203f8c g     F .text	000000e0 free_tracker
03207ba8 g     F .text	00000008 __sclose
03247d34 g     F .text	00000060 print46_addr
03400000 g       *ABS*	00000000 __alt_heap_limit
032048e0 g     F .text	00000014 fclose
032166dc g     F .text	00000110 OS_EventTaskWait
032105e4 g     F .text	00000244 _strtol_r
03213dc8 g     F .text	00000074 __truncdfsf2
03226028 g     F .text	0000012c print_uptime
032172c8 g     F .text	000000c8 OS_TaskStatStkChk
0325d70c g     O .bss	00000190 _atexit0
0321c590 g     F .text	00000170 OSTaskDelReq
0320c0f4 g     F .text	000015b4 _dtoa_r
032062ac g     F .text	00000740 _malloc_r
032477e4 g     F .text	00000024 md_unlink
03248278 g     F .text	00000054 in_pcbdetach
03252a94 g     O .rwdata	00000004 alt_errno
03252ac4 g     O .rwdata	00000004 mdlist_size
032161b0 g     F .text	00000070 OSStart
032110a8 g     F .text	000000dc __submore
0321e470 g     F .text	00000048 alt_write_flash_command_32bit_device_32bit_mode
032469c4 g     F .text	00000030 u_mctest_init
03215314 g     F .text	0000005c __env_unlock
03203ec8 g     F .text	000000c4 disable_tracker
03205e5c g     F .text	000000b8 _fwalk
0321ca7c g     F .text	00000218 OSTaskResume
03219774 g     F .text	000000fc OSMemQuery
03247ecc g     F .text	0000014c convert_ip
0323d980 g     F .text	000001a8 find_oldest_arp
03252a04 g     O .rwdata	00000002 OSTaskStatEn
03254d68 g     O .bss	00000004 arpReqsIn
03248c80 g     F .text	00000050 vf_free_buffer
0321dddc g     F .text	00000164 alt_write_value_to_flash
0320dcd8 g     F .text	00000040 _mbtowc_r
0324a6c8 g     F .text	00000154 alt_fcntl
032529de g     O .rwdata	00000002 OSMemMax
0321a68c g     F .text	00000188 OSQPostFront
0321e4ec g     F .text	00000034 alt_write_native_16bit
0322aef0 g     F .text	00000030 dtrap
03252a60 g     O .rwdata	00000004 kb_last
03206e58 g     F .text	00000104 putc
032012d8 g     F .text	00000058 get_sensor_mode
03204700 g     F .text	00000060 __divsi3
03254c49 g     O .bss	00000003 OSRdyTbl
032529b8 g     O .rwdata	00000002 OSDebugEn
0324e4c4 g     O .rodata	00000014 __thenan_df
03223fec g     F .text	000000d0 ip_exit
03204fe4 g     F .text	0000012c _malloc_trim_r
0324c36c g       *ABS*	00000000 __CTOR_END__
032529d0 g     O .rwdata	00000002 OSFlagNodeSize
03254ca0 g     O .bss	00000004 dhc_conn
03201030 g     F .text	00000058 get_image_size
0322b084 g     F .text	0000006c cticks_hook
03252a18 g     O .rwdata	00000002 OSTmrCfgMax
0323cb44 g     F .text	0000003c sysuptime
0320eebc g     F .text	000000bc strcmp
03201cb8 g     F .text	000001cc generate_and_store_mac_addr
032422dc g     F .text	000001c8 ip_reasm_delete_ire
03219a94 g     F .text	00000214 OSQCreate
0322b0f0 g     F .text	0000005c irq_Mask
0321c700 g     F .text	000001b8 OSTaskNameGet
03254d54 g     O .bss	00000004 nextppp
03254ce0 g     O .bss	00000004 irq_level
03201388 g     F .text	000000b8 camera_configure
0322340c g     F .text	00000160 fixup_subnet_mask
0324c36c g       *ABS*	00000000 __flash_rodata_start
0321a814 g     F .text	00000234 OSQPostOpt
032162cc g     F .text	00000240 OSTimeTick
03240ac0 g     F .text	00000138 ip_copypkt
03229d9c g     F .text	00000090 dhc_alldone
03252a00 g     O .rwdata	00000002 OSTaskMax
0324c36c g       *ABS*	00000000 __DTOR_LIST__
0321ad34 g     F .text	00000114 OSSemCreate
03254c84 g     O .bss	00000004 igmp_all_hosts_group
03252a24 g     O .rwdata	00000002 OSTmrWheelSize
032321d0 g     F .text	00000038 sbselqueue
03254c8c g     O .bss	00000004 netmain_wakes
0323ded0 g     F .text	00000260 arprcv
03226a54 g     F .text	00000070 TK_OSTaskResume
03224d7c g     F .text	000003e0 igmp_print_stats
03213950 g     F .text	00000088 __nedf2
0322bb80 g     F .text	000000a0 pffindtype
032529fa g     O .rwdata	00000002 OSTaskDelEn
03252a78 g     O .rwdata	00000004 tcp_sendspace
03249de0 g     F .text	00000134 vftell
0325cd88 g     O .bss	00000012 eth_prt_buf
0321b608 g     F .text	00000130 OSSemQuery
03219ca8 g     F .text	00000300 OSQDel
0321a390 g     F .text	0000017c OSQPendAbort
0321d814 g     F .text	00000034 alt_irq_init
0325d1f0 g     O .bss	00000018 app_semaphore
0321514c g     F .text	00000060 alt_release_fd
0322b5a0 g     F .text	00000078 post_app_sem
0322414c g     F .text	000000b0 igmp_init
032079c0 g     F .text	00000074 sprintf
0324e4d8 g     O .rodata	00000100 __clz_tab
03254cc8 g     O .bss	00000004 dsc_renew
0324763c g     F .text	00000080 md_fwrite
03254bf8 g     O .bss	00000004 _PathLocale
03254cf0 g     O .bss	00000004 tcp_sleep_count
0322c674 g     F .text	0000007c insque
032104a4 g     F .text	00000124 strtof
0324bc18 g     F .text	00000014 atexit
03254dbc g     O .bss	00000004 vfsfiles
0320bcb8 g     F .text	00000078 _write_r
0324bfa0 g     F .text	00000050 _vsprintf_r
0324503c g     F .text	000002b8 udp_send
03216040 g     F .text	0000008c OSSchedLock
03224490 g     F .text	000002a8 igmp_send
0320db84 g     F .text	0000001c setlocale
032216ac g     F .text	00000104 set_search_window
03217b30 g     F .text	0000013c OSFlagCreate
0322b14c g     F .text	00000044 irq_Unmask
0322e180 g     F .text	000000e4 t_listen
0320eeb4 g     F .text	00000008 nanf
0325298c g     O .rwdata	00000004 _impure_ptr
032509fc g     O .rwdata	00000018 ssstask
03254bfc g     O .bss	00000004 alt_argc
03238b8c g     F .text	00000704 tcp_usrreq
032397ec g     F .text	00000284 udp_usrreq
0322bae0 g     F .text	00000054 ncpalloc
0320dc18 g     F .text	00000080 _mbrtowc_r
0323a7f4 g     F .text	00000064 _do_dtors
032529ca g     O .rwdata	00000002 OSEventMultiEn
03252aac g     O .rwdata	00000004 pingdelay
03205424 g     F .text	0000043c _fseek_r
0323d474 g     F .text	00000074 arp_send_pending
03245620 g     F .text	000002e8 igmpv1_input
03207710 g     F .text	000001c4 __srefill_r
0322b834 g     F .text	00000074 pre_task_setup
03254d10 g     O .bss	00000004 rcvdq_sem_ptr
032253c0 g     F .text	0000012c bsd_getsockname
032424a4 g     F .text	00000148 ip_reasm_mark_compact_rfq
0320223c g     F .text	00000144 FindLastFlashSectorOffset
03217c6c g     F .text	000002a8 OSFlagDel
03254c4c g     O .bss	00000004 OSEventFreeList
0322715c g     F .text	00000044 dhc_set_callback
03200020 g       .exceptions	00000000 alt_irq_entry
03254d64 g     O .bss	00000004 arpcache
03203c08 g     F .text	00000098 trackers_init
0324b540 g     F .text	00000350 icmp_destun
03243a50 g     F .text	00000070 lookup_mcast
0324a1b4 g     F .text	00000048 vfslookup
032433a0 g     F .text	00000430 ip_demux
0320ded4 g     F .text	00000080 __ulp
0320ed84 g     F .text	00000040 __isinfd
03254cf4 g     O .bss	00000004 tcp_wakeup_count
032181ac g     F .text	00000644 OSFlagPend
03252a16 g     O .rwdata	00000002 OSTmrEn
03204c40 g     F .text	00000018 __fp_unlock_all
0322b4ec g     F .text	000000b4 wait_app_sem
03221354 g     F .text	00000058 altera_avalon_lcd_16207_write_fd
0320d748 g     F .text	00000064 fputc
03252a38 g     O .rwdata	00000004 ipmcfail_str
03254d08 g     O .bss	00000004 memtrapsize
0322c010 g     F .text	00000324 m_copy
03252a80 g     O .rwdata	00000008 alt_fs_list
0320406c g     F .text	000001b8 set_search_window_of_tracker
0325d26c g     O .bss	00000014 mfreeq
032170cc g     F .text	00000080 OS_StrCopy
0322f8f0 g     F .text	0000005c sobind
032473fc g     F .text	00000078 init_memdev
03254bd0 g     O .bss	00000001 to_ssstask
0321e39c g     F .text	00000048 alt_write_flash_command_32bit_device_8bit_mode
0322c6f0 g     F .text	00000124 nptcp_init
03201280 g     F .text	00000058 set_sensor_size
032529e0 g     O .rwdata	00000002 OSMemNameSize
0325d0c0 g     O .bss	000000f0 global_TCPwakeup_set
0323b920 g     F .text	0000001c OSInitHookEnd
03231c8c g     F .text	000000bc soisdisconnected
03200020 g       *ABS*	00000000 __ram_exceptions_start
0323d3ec g     F .text	00000088 arp_free_pending
03252a0c g     O .rwdata	00000002 OSTCBPrioTblMax
0320daf0 g     F .text	00000010 localeconv
0322fb6c g     F .text	000002f4 soclose
0325cfb0 g     O .bss	00000014 bigfreeq
03252a08 g     O .rwdata	00000002 OSTaskStatStkChkEn
03252aa8 g     O .rwdata	00000004 prompt
032524b8 g     O .rwdata	00000048 eth_ocm_0
03252a70 g     O .rwdata	00000004 tcp_keepidle
0322d56c g     F .text	000001d4 rawip_soinput
03249c04 g     F .text	00000060 vfwrite
032529dc g     O .rwdata	00000002 OSMemEn
03231f64 g     F .text	000000ac soqinsque
03254d98 g     O .bss	00000004 so_evtmap_delete
03205fb0 g     F .text	00000040 fwrite
03211414 g     F .text	00000068 __hexdig_init
03207a9c g     F .text	00000088 _sscanf_r
032529e6 g     O .rwdata	00000002 OSMutexEn
03254d84 g     O .bss	00000004 h_ireq
03252ad0 g       *ABS*	00000000 _edata
0323fecc g     F .text	00000624 ip_fragment
03222b94 g     F .text	00000144 iniche_devices_init
0325d280 g     O .bss	00000028 tcp_saveti
03226544 g     F .text	000000f0 con_page
0325d89c g       *ABS*	00000000 _end
03231514 g     F .text	00000540 sogetopt
03214860 g     F .text	0000007c alt_flash_open_dev
03254c50 g     O .bss	00000001 OSIntNesting
03252500 g     O .rwdata	00000030 nettasks
0322a6ec g     F .text	00000020 pk_get_max_intrsafe_buf_len
03240854 g     F .text	0000026c iproute
0322d038 g     F .text	000000e8 np_stripoptions
03254d9c g     O .bss	00000001 so_evtmap
032001c0 g       *ABS*	00000000 __ram_exceptions_end
0320baf8 g     F .text	00000074 vfscanf
0321fd88 g     F .text	000000f4 altera_avalon_jtag_uart_ioctl
03204f54 g     F .text	00000074 _fputs_r
0321d53c g     F .text	00000210 OSTimeDlyResume
03244278 g     F .text	00000428 add_route
03218058 g     F .text	00000154 OSFlagNameSet
03223a28 g     F .text	000000d0 c_older
032329ac g     F .text	00000090 sbflush
0323c31c g     F .text	00000070 eth_ocm_read_phy_reg
0324749c g     F .text	00000020 md_fclose
03226ddc g     F .text	0000002c tk_yield
032037b0 g     F .text	000000c0 sss_handle_accept
0321cc94 g     F .text	000001fc OSTaskStkChk
032300c0 g     F .text	00000608 sosend
032529e2 g     O .rwdata	00000002 OSMemSize
03201178 g     F .text	00000058 get_start_image
032404f0 g     F .text	000000ac ip_mymach
03207c18 g     F .text	0000007c __swrite
03254cdc g     O .bss	00000004 cticks_initialized
03252ab0 g     O .rwdata	00000004 deflength
0322efe8 g     F .text	0000022c t_sendto
03252994 g     O .rwdata	00000004 __malloc_trim_threshold
03206d60 g     F .text	0000006c _perror_r
03254c54 g     O .bss	00000004 OSTCBCur
0322f724 g     F .text	000001cc socreate
0324bc60 g     F .text	00000038 exit
0325d418 g     O .bss	00000100 arp_table
03254dd4 g     O .bss	00000004 icmpdu_hook
032529e4 g     O .rwdata	00000002 OSMemTblSize
03205d94 g     F .text	000000c8 _fwalk_reent
0323d0c8 g     F .text	00000024 create_apptasks
03252a6c g     O .rwdata	00000004 tcp_ttl
0320e4d0 g     F .text	0000018c __mdiff
032148dc g     F .text	00000054 alt_flash_close_dev
0322bb34 g     F .text	0000004c ncpfree
03204760 g     F .text	00000060 __modsi3
03254c68 g     O .bss	00000004 MaxLnh
032011d0 g     F .text	00000058 set_start_image
03247ca8 g     F .text	0000008c inet_ntop
032455b4 g     F .text	0000002c udp_maxalloc
03400000 g       *ABS*	00000000 __alt_data_end
03200020 g     F .exceptions	00000000 alt_exception
03204b80 g     F .text	00000004 __sfp_lock_release
03215e70 g     F .text	00000054 OSInit
0321d0bc g     F .text	00000144 OSTaskQuery
0323c970 g     F .text	00000088 icmp_port_du
03254d38 g     O .bss	00000004 tcp_iss
0321abc8 g     F .text	000000ac OS_QInit
0320edf4 g     F .text	000000c0 __sccl
0324bc38 g     F .text	0000000c atoi
03252a5c g     O .rwdata	00000004 bigbufsiz
0321714c g     F .text	00000058 OS_StrLen
032382fc g     F .text	00000080 tcp_putseq
03219564 g     F .text	00000120 OSMemNameSet
0324d820 g     O .rodata	00000101 _ctype_
032325bc g     F .text	00000208 sbappendaddr
02800000 g       *ABS*	00000000 __alt_mem_ext_flash
03254dcc g     O .bss	00000004 vfs_total_rw_space
03246800 g     F .text	00000140 ip_getmoptions
032529fe g     O .rwdata	00000002 OSTaskProfileEn
032452f4 g     F .text	00000130 udpswap
03254c58 g     O .bss	00000004 OSTime
03254d14 g     O .bss	00000004 nextslow
032383f4 g     F .text	000002a0 tcp_slowtimo
03238004 g     F .text	00000118 tcp_newtcpcb
0323e130 g     F .text	000001a8 send_via_arp
032270a0 g     F .text	000000bc dhc_init
03241e38 g     F .text	00000064 ip_reasm_find_ire
03214118 g     F .text	000000a8 __fpcmp_parts_f
0325b15c g     O .bss	00000800 OSTaskIdleStk
03204de4 g     F .text	000000f4 _fopen_r
0324c33c g     F .text	0000002c _exit
0324a3e4 g     F .text	00000064 isvfile_locked
0320edc4 g     F .text	00000030 __isnand
03225a58 g     F .text	00000168 bsd_select
0323a2e4 g     F .text	00000154 alt_alarm_start
03217f14 g     F .text	00000144 OSFlagNameGet
032455e0 g     F .text	00000040 udp_free
0322a7b8 g     F .text	000000c8 getq
0324a558 g     F .text	00000024 prep_vfs
0321d74c g     F .text	00000064 OSTimeGet
03252aa4 g     O .rwdata	00000004 name
03232c0c g     F .text	00000110 sbdropend
03211f78 g     F .text	00000098 __muldi3
03206118 g     F .text	00000194 __smakebuf_r
0321e520 g     F .text	00000030 alt_write_native_32bit
0323e2d8 g     F .text	00000118 cb_arpent_tmo
03208448 g     F .text	00000074 strlen
032460c8 g     F .text	00000148 IPADDR_TO_NETP
032258c8 g     F .text	00000030 bsd_inet_ntoa
0323b8a4 g     F .text	0000001c OSTaskSwHook
03214f64 g     F .text	00000188 open
0322aa40 g     F .text	00000238 udp_open
0325b95c g     O .bss	00000b40 OSEventTbl
03232130 g     F .text	00000050 socantsendmore
03254dd0 g     O .bss	00000004 vfs_total_dyna_files
03213a60 g     F .text	00000088 __gedf2
0325c49c g     O .bss	00000510 OSTCBTbl
0321152c g     F .text	000007b8 __gethex
03254d6c g     O .bss	00000004 arpReqsOut
0321b738 g     F .text	00000104 OSSemSet
03252acc g     O .rwdata	00000004 http_root_path
0322928c g     F .text	000002bc dhc_extract_opts
03241314 g     F .text	00000590 ip_reasm_compute_overlap
0321dce4 g     F .text	00000090 alt_flash_cfi_get_info
0323ab00 g     F .text	00000030 alt_icache_flush_all
03207cf4 g     F .text	000000e0 strchr
0325cd9a g     O .bss	00000012 ipreturn
03254d8c g     O .bss	00000004 port_prep
03252583 g     O .rwdata	0000000d tcp_backoff
03231a98 g     F .text	0000006c soisconnecting
032016d0 g     F .text	000000b0 SSSInitialTask
03204fc8 g     F .text	0000001c fputs
03252a98 g     O .rwdata	00000004 alt_priority_mask
03245bb4 g     F .text	0000024c igmpv2_process_query
03232db0 g     F .text	00000220 t_select
0321ae48 g     F .text	000002a0 OSSemDel
03203d60 g     F .text	00000168 activate_tracker
0323a188 g     F .text	0000015c udp4_sockaddr
03254c5c g     O .bss	00000004 OSFlagFreeList
03248520 g     F .text	00000210 in_pcbconnect
03254d2c g     O .bss	00000004 dropline
03254d88 g     O .bss	00000004 ire_cticks
032529c4 g     O .rwdata	00000002 OSEventNameSize
0320a3c8 g     F .text	00000024 __vfprintf_internal
03226954 g     F .text	00000088 tk_netmain
03248730 g     F .text	00000060 in_pcbdisconnect
03254c60 g     O .bss	00000001 OSStatRdy
03200db4 g     F .text	00000068 camera_init
0325c9ac g     O .bss	00000054 OSTCBPrioTbl
03221860 g     F .text	000001bc eth_ocm_prep
03215268 g     F .text	000000ac __env_lock
03252a0a g     O .rwdata	00000002 OSTaskSwHookEn
0325281c g     O .rwdata	00000024 mdio
0322515c g     F .text	00000138 bsd_accept
03252a7c g     O .rwdata	00000004 tcp_recvspace
032131b8 g     F .text	00000080 __subdf3
03239578 g     F .text	0000004c tcpinit
03254c88 g     O .bss	00000004 igmp_all_rtrs_group
0322d4fc g     F .text	00000070 rawip_lookup
0323d16c g     F .text	000000b0 fcntl
0320ddb0 g     F .text	000000c4 __lo0bits
032327c4 g     F .text	000001e8 sbcompress
0320a3ec g     F .text	00001680 __svfscanf_r
03252a9c g     O .rwdata	00000008 alt_alarm_list
03211184 g     F .text	0000019c _ungetc_r
0323811c g     F .text	000000ac tcp_drop
032529d2 g     O .rwdata	00000002 OSFlagWidth
0323a790 g     F .text	00000064 _do_ctors
032386f0 g     F .text	0000049c tcp_timers
032240bc g     F .text	00000090 if_netnumber
03246940 g     F .text	00000084 ip_freemoptions
03231a54 g     F .text	00000044 sohasoutofband
03233acc g     F .text	00002554 tcp_input
03225294 g     F .text	0000012c bsd_getpeername
032258f8 g     F .text	00000160 bsd_recvfrom
03222b40 g     F .text	00000054 close
03254cb8 g     O .bss	00000004 dsc_bpreplys
0323b978 g     F .text	00000068 alt_program_amd
03254c0c g     O .bss	00000004 alt_envsem
03254c64 g     O .bss	00000004 OSIdleCtrRun
0321650c g     F .text	00000020 OSVersion
03252a1c g     O .rwdata	00000002 OSTmrCfgWheelSize
03214b84 g     F .text	00000080 alt_load
0321d200 g     F .text	0000007c OS_TaskStkClr
03248ae4 g     F .text	00000028 set_vfopen_error
032141ec g     F .text	00000314 __pack_d
032529f6 g     O .rwdata	00000002 OSTaskCreateEn
03252560 g     O .rwdata	00000018 rawip_protosw
03232208 g     F .text	00000068 sbwait
03216afc g     F .text	00000068 OS_EventWaitListInit
03229548 g     F .text	0000059c dhc_second
03254d58 g     O .bss	00000004 port_1s_callout
0323b93c g     F .text	0000001c OSTaskIdleHook
0324bc98 g     F .text	00000014 free
03204b84 g     F .text	00000004 __sinit_lock_acquire
0320e9cc g     F .text	00000100 __multadd
0321ce90 g     F .text	0000022c OSTaskSuspend
0320dd18 g     F .text	00000028 _Bfree
03231d48 g     F .text	0000021c sonewconn
0324a90c g     F .text	00000c34 icmprcv
0322bc20 g     F .text	000000d0 pffindproto
032171a4 g     F .text	0000005c OS_TaskIdle
03252a22 g     O .rwdata	00000002 OSTmrTblSize
0321aa48 g     F .text	00000180 OSQQuery



Disassembly of section .entry:

03200000 <__reset>:
#if NIOS2_ICACHE_SIZE > 0 && defined(ALT_ALLOW_CODE_AT_RESET) && !defined(ALT_SIM_OPTIMIZE)
    /* Assume the instruction cache size is always a power of two. */
#if NIOS2_ICACHE_SIZE > 0x8000
    movhi r2, %hi(NIOS2_ICACHE_SIZE)
#else
    movui r2, NIOS2_ICACHE_SIZE
 3200000:	00900014 	movui	r2,16384
#endif

0:
    initi r2
 3200004:	1001483a 	initi	r2
    addi r2, r2, -NIOS2_ICACHE_LINE_SIZE
 3200008:	10bff804 	addi	r2,r2,-32
    bgt r2, zero, 0b
 320000c:	00bffd16 	blt	zero,r2,3200004 <__reset+0x4>
 * Jump to the _start entry point in the .text section if reset code
 * is allowed or if optimizing for RTL simulation.
 */
#if defined(ALT_ALLOW_CODE_AT_RESET) || defined(ALT_SIM_OPTIMIZE)
    /* Jump to the _start entry point in the .text section. */
    movhi r1, %hi(_start)
 3200010:	0040c834 	movhi	at,800
    ori r1, r1, %lo(_start)
 3200014:	08407014 	ori	at,at,448
    jmp r1
 3200018:	0800683a 	jmp	at
 320001c:	00000000 	call	0 <OSTCBStkPtr_OFFSET>

Disassembly of section .exceptions:

03200020 <alt_exception>:
         * Process an exception.  For all exceptions we must preserve all
         * caller saved registers on the stack (See the Nios2 ABI
         * documentation for details).
         */

        addi  sp, sp, -76
 3200020:	deffed04 	addi	sp,sp,-76

#endif

#endif

        stw   ra,  0(sp)
 3200024:	dfc00015 	stw	ra,0(sp)
        /*
         * Leave a gap in the stack frame at 4(sp) for the muldiv handler to
         * store zero into.
         */

        stw   r1,   8(sp)
 3200028:	d8400215 	stw	at,8(sp)
        stw   r2,  12(sp)
 320002c:	d8800315 	stw	r2,12(sp)
        stw   r3,  16(sp)
 3200030:	d8c00415 	stw	r3,16(sp)
        stw   r4,  20(sp)
 3200034:	d9000515 	stw	r4,20(sp)
        stw   r5,  24(sp)
 3200038:	d9400615 	stw	r5,24(sp)
        stw   r6,  28(sp)
 320003c:	d9800715 	stw	r6,28(sp)
        stw   r7,  32(sp)
 3200040:	d9c00815 	stw	r7,32(sp)

        rdctl r5, estatus
 3200044:	000b307a 	rdctl	r5,estatus

        stw   r8,  36(sp)
 3200048:	da000915 	stw	r8,36(sp)
        stw   r9,  40(sp)
 320004c:	da400a15 	stw	r9,40(sp)
        stw   r10, 44(sp)
 3200050:	da800b15 	stw	r10,44(sp)
        stw   r11, 48(sp)
 3200054:	dac00c15 	stw	r11,48(sp)
        stw   r12, 52(sp)
 3200058:	db000d15 	stw	r12,52(sp)
        stw   r13, 56(sp)
 320005c:	db400e15 	stw	r13,56(sp)
        stw   r14, 60(sp)
 3200060:	db800f15 	stw	r14,60(sp)
        stw   r15, 64(sp)
 3200064:	dbc01015 	stw	r15,64(sp)
        /*
         * ea-4 contains the address of the instruction being executed
         * when the exception occured. For interrupt exceptions, we will
         * will be re-issue the isntruction. Store it in 72(sp)
         */
        stw   r5,  68(sp)  /* estatus */
 3200068:	d9401115 	stw	r5,68(sp)
        addi  r15, ea, -4  /* instruction that caused exception */
 320006c:	ebffff04 	addi	r15,ea,-4
        stw   r15,  72(sp)
 3200070:	dbc01215 	stw	r15,72(sp)
#else
        /*
         * Test to see if the exception was a software exception or caused 
         * by an external interrupt, and vector accordingly.
         */
        rdctl r4, ipending
 3200074:	0009313a 	rdctl	r4,ipending
        andi  r2, r5, 1
 3200078:	2880004c 	andi	r2,r5,1
        beq   r2, zero, .Lnot_irq
 320007c:	10000326 	beq	r2,zero,320008c <alt_exception+0x6c>
        beq   r4, zero, .Lnot_irq
 3200080:	20000226 	beq	r4,zero,320008c <alt_exception+0x6c>
        /*
         * Now that all necessary registers have been preserved, call 
         * alt_irq_handler() to process the interrupts.
         */

        call alt_irq_handler
 3200084:	32000ec0 	call	32000ec <alt_irq_handler>

        .section .exceptions.irqreturn, "xa"

        br    .Lexception_exit
 3200088:	00000306 	br	3200098 <alt_exception+0x78>
         * upon completion, so we write ea (address of instruction *after*
         * the one where the exception occured) into 72(sp). The actual
         * instruction that caused the exception is written in r2, which these
         * handlers will utilize.
         */
        stw   ea,  72(sp)  /* Don't re-issue */
 320008c:	df401215 	stw	ea,72(sp)
        ldw   r2, -4(ea)   /* Instruction that caused exception */
 3200090:	e8bfff17 	ldw	r2,-4(ea)
#ifdef NIOS2_HAS_DEBUG_STUB
       /*
        *  Either tell the user now (if there is a debugger attached) or go into
        *  the debug monitor which will loop until a debugger is attached.
        */
        break
 3200094:	003da03a 	break	0
        /* 
         * Restore the saved registers, so that all general purpose registers 
         * have been restored to their state at the time the interrupt occured.
         */

        ldw   r5,  68(sp)
 3200098:	d9401117 	ldw	r5,68(sp)
        ldw   ea,  72(sp)  /* This becomes the PC once eret is executed */
 320009c:	df401217 	ldw	ea,72(sp)
        ldw   ra,   0(sp)
 32000a0:	dfc00017 	ldw	ra,0(sp)

        wrctl estatus, r5
 32000a4:	2801707a 	wrctl	estatus,r5

        ldw   r1,   8(sp)
 32000a8:	d8400217 	ldw	at,8(sp)
        ldw   r2,  12(sp)
 32000ac:	d8800317 	ldw	r2,12(sp)
        ldw   r3,  16(sp)
 32000b0:	d8c00417 	ldw	r3,16(sp)
        ldw   r4,  20(sp)
 32000b4:	d9000517 	ldw	r4,20(sp)
        ldw   r5,  24(sp)
 32000b8:	d9400617 	ldw	r5,24(sp)
        ldw   r6,  28(sp)
 32000bc:	d9800717 	ldw	r6,28(sp)
        ldw   r7,  32(sp)
 32000c0:	d9c00817 	ldw	r7,32(sp)
#ifdef ALT_STACK_CHECK
        ldw   et, %gprel(alt_exception_old_stack_limit)(gp)
#endif
#endif

        ldw   r8,  36(sp)
 32000c4:	da000917 	ldw	r8,36(sp)
        ldw   r9,  40(sp)
 32000c8:	da400a17 	ldw	r9,40(sp)
        ldw   r10, 44(sp)
 32000cc:	da800b17 	ldw	r10,44(sp)
        ldw   r11, 48(sp)
 32000d0:	dac00c17 	ldw	r11,48(sp)
        ldw   r12, 52(sp)
 32000d4:	db000d17 	ldw	r12,52(sp)
        ldw   r13, 56(sp)
 32000d8:	db400e17 	ldw	r13,56(sp)
        ldw   r14, 60(sp)
 32000dc:	db800f17 	ldw	r14,60(sp)
        ldw   r15, 64(sp)
 32000e0:	dbc01017 	ldw	r15,64(sp)
#endif

        ldw   sp,  76(sp)

#else
        addi  sp, sp, 76
 32000e4:	dec01304 	addi	sp,sp,76

        /*
         * Return to the interrupted instruction.
         */

        eret
 32000e8:	ef80083a 	eret

032000ec <alt_irq_handler>:
 * instruction is present if the macro ALT_CI_INTERRUPT_VECTOR defined.
 */

void alt_irq_handler (void) __attribute__ ((section (".exceptions")));
void alt_irq_handler (void)
{
 32000ec:	defff904 	addi	sp,sp,-28
 32000f0:	dfc00615 	stw	ra,24(sp)
 32000f4:	df000515 	stw	fp,20(sp)
 32000f8:	df000504 	addi	fp,sp,20
  
  /*
   * Notify the operating system that we are at interrupt level.
   */ 
  
  ALT_OS_INT_ENTER();
 32000fc:	3215ec40 	call	3215ec4 <OSIntEnter>
#ifndef NIOS2_EIC_PRESENT
static ALT_INLINE alt_u32 ALT_ALWAYS_INLINE alt_irq_pending (void)
{
  alt_u32 active;

  NIOS2_READ_IPENDING (active);
 3200100:	0005313a 	rdctl	r2,ipending
 3200104:	e0bffc15 	stw	r2,-16(fp)

  return active;
 3200108:	e0bffc17 	ldw	r2,-16(fp)
   * Consider the case where the high priority interupt is asserted during
   * the interrupt entry sequence for a lower priority interrupt to see why
   * this is the case.
   */

  active = alt_irq_pending ();
 320010c:	e0bfff15 	stw	r2,-4(fp)

  do
  {
    i = 0;
 3200110:	e03ffd15 	stw	zero,-12(fp)
    mask = 1;
 3200114:	00800044 	movi	r2,1
 3200118:	e0bffe15 	stw	r2,-8(fp)
     * called to clear the interrupt condition.
     */

    do
    {
      if (active & mask)
 320011c:	e0ffff17 	ldw	r3,-4(fp)
 3200120:	e0bffe17 	ldw	r2,-8(fp)
 3200124:	1884703a 	and	r2,r3,r2
 3200128:	1005003a 	cmpeq	r2,r2,zero
 320012c:	1000171e 	bne	r2,zero,320018c <alt_irq_handler+0xa0>
      { 
#ifdef ALT_ENHANCED_INTERRUPT_API_PRESENT
        alt_irq[i].handler(alt_irq[i].context); 
#else
        alt_irq[i].handler(alt_irq[i].context, i); 
 3200130:	e0bffd17 	ldw	r2,-12(fp)
 3200134:	00c0c9b4 	movhi	r3,806
 3200138:	18f56904 	addi	r3,r3,-10844
 320013c:	100490fa 	slli	r2,r2,3
 3200140:	10c5883a 	add	r2,r2,r3
 3200144:	11800017 	ldw	r6,0(r2)
 3200148:	e0bffd17 	ldw	r2,-12(fp)
 320014c:	00c0c9b4 	movhi	r3,806
 3200150:	18f56904 	addi	r3,r3,-10844
 3200154:	100490fa 	slli	r2,r2,3
 3200158:	10c5883a 	add	r2,r2,r3
 320015c:	10800104 	addi	r2,r2,4
 3200160:	11000017 	ldw	r4,0(r2)
 3200164:	e17ffd17 	ldw	r5,-12(fp)
 3200168:	303ee83a 	callr	r6
#ifndef NIOS2_EIC_PRESENT
static ALT_INLINE alt_u32 ALT_ALWAYS_INLINE alt_irq_pending (void)
{
  alt_u32 active;

  NIOS2_READ_IPENDING (active);
 320016c:	0005313a 	rdctl	r2,ipending
 3200170:	e0bffb15 	stw	r2,-20(fp)

  return active;
 3200174:	e0bffb17 	ldw	r2,-20(fp)
      mask <<= 1;
      i++;

    } while (1);

    active = alt_irq_pending ();
 3200178:	e0bfff15 	stw	r2,-4(fp)
    
  } while (active);
 320017c:	e0bfff17 	ldw	r2,-4(fp)
 3200180:	1004c03a 	cmpne	r2,r2,zero
 3200184:	103fe21e 	bne	r2,zero,3200110 <alt_irq_handler+0x24>
 3200188:	00000706 	br	32001a8 <alt_irq_handler+0xbc>
#else
        alt_irq[i].handler(alt_irq[i].context, i); 
#endif
        break;
      }
      mask <<= 1;
 320018c:	e0bffe17 	ldw	r2,-8(fp)
 3200190:	1085883a 	add	r2,r2,r2
 3200194:	e0bffe15 	stw	r2,-8(fp)
      i++;
 3200198:	e0bffd17 	ldw	r2,-12(fp)
 320019c:	10800044 	addi	r2,r2,1
 32001a0:	e0bffd15 	stw	r2,-12(fp)

    } while (1);
 32001a4:	003fdd06 	br	320011c <alt_irq_handler+0x30>

  /*
   * Notify the operating system that interrupt processing is complete.
   */ 

  ALT_OS_INT_EXIT();
 32001a8:	3215f400 	call	3215f40 <OSIntExit>
}
 32001ac:	e037883a 	mov	sp,fp
 32001b0:	dfc00117 	ldw	ra,4(sp)
 32001b4:	df000017 	ldw	fp,0(sp)
 32001b8:	dec00204 	addi	sp,sp,8
 32001bc:	f800283a 	ret

Disassembly of section .text:

032001c0 <_start>:

    /* Assume the data cache size is always a power of two. */
#if NIOS2_DCACHE_SIZE > 0x8000
    movhi r2, %hi(NIOS2_DCACHE_SIZE)
#else
    movui r2, NIOS2_DCACHE_SIZE
 32001c0:	00900014 	movui	r2,16384
#endif

0:
    initd 0(r2)
 32001c4:	10000033 	initd	0(r2)
    addi r2, r2, -NIOS2_DCACHE_LINE_SIZE
 32001c8:	10bff804 	addi	r2,r2,-32
    bgt r2, zero, 0b
 32001cc:	00bffd16 	blt	zero,r2,32001c4 <_start+0x4>
#if (NIOS2_NUM_OF_SHADOW_REG_SETS == 0)    
    /*
     * Now that the caches are initialized, set up the stack pointer.
     * The value provided by the linker is assumed to be correctly aligned.
     */
    movhi sp, %hi(__alt_stack_pointer)
 32001d0:	06c0d034 	movhi	sp,832
    ori sp, sp, %lo(__alt_stack_pointer)
 32001d4:	dec00014 	ori	sp,sp,0

    /* Set up the global pointer. */
    movhi gp, %hi(_gp)
 32001d8:	0680c974 	movhi	gp,805
    ori gp, gp, %lo(_gp)
 32001dc:	d6aa6214 	ori	gp,gp,43400
 */
#ifndef ALT_SIM_OPTIMIZE
    /* Log that the BSS is about to be cleared. */
    ALT_LOG_PUTS(alt_log_msg_bss)

    movhi r2, %hi(__bss_start)
 32001e0:	0080c974 	movhi	r2,805
    ori r2, r2, %lo(__bss_start)
 32001e4:	1092f314 	ori	r2,r2,19404

    movhi r3, %hi(__bss_end)
 32001e8:	00c0c974 	movhi	r3,805
    ori r3, r3, %lo(__bss_end)
 32001ec:	18f62714 	ori	r3,r3,55452

    beq r2, r3, 1f
 32001f0:	10c00326 	beq	r2,r3,3200200 <_start+0x40>

0:
    stw zero, (r2)
 32001f4:	10000015 	stw	zero,0(r2)
    addi r2, r2, 4
 32001f8:	10800104 	addi	r2,r2,4
    bltu r2, r3, 0b
 32001fc:	10fffd36 	bltu	r2,r3,32001f4 <_start+0x34>
     * section aren't defined until alt_load() has been called).
     */
    mov   et, zero
#endif

    call alt_load
 3200200:	3214b840 	call	3214b84 <alt_load>

    /* Log that alt_main is about to be called. */
    ALT_LOG_PUTS(alt_log_msg_alt_main)

    /* Call the C entry point. It should never return. */
    call alt_main
 3200204:	3214dc00 	call	3214dc0 <alt_main>

03200208 <alt_after_alt_main>:

    /* Wait in infinite loop in case alt_main does return. */
alt_after_alt_main:
    br alt_after_alt_main
 3200208:	003fff06 	br	3200208 <alt_after_alt_main>

0320020c <alt_uCOSIIErrorHandler>:
#include <errno.h>
#include "includes.h"
#include "alt_error_handler.h"
 
void alt_uCOSIIErrorHandler(INT8U error_code, void *expanded_diagnosis_ptr)
{
 320020c:	defff904 	addi	sp,sp,-28
 3200210:	dfc00615 	stw	ra,24(sp)
 3200214:	df000515 	stw	fp,20(sp)
 3200218:	df000504 	addi	fp,sp,20
 320021c:	e17ffd15 	stw	r5,-12(fp)
 3200220:	e13ffc05 	stb	r4,-16(fp)
   FAULT_LEVEL fault_level;
   
   if(error_code == OS_NO_ERR)
 3200224:	e0bffc03 	ldbu	r2,-16(fp)
 3200228:	1005003a 	cmpeq	r2,r2,zero
 320022c:	10017b1e 	bne	r2,zero,320081c <alt_uCOSIIErrorHandler+0x610>
   {
      return;
   }
   
   fault_level = SYSTEM;  
 3200230:	00800084 	movi	r2,2
 3200234:	e0bffb15 	stw	r2,-20(fp)
   OSSchedLock();  /* Disable Task Switching but still service other IRQs */
 3200238:	32160400 	call	3216040 <OSSchedLock>
      
   switch (error_code)
 320023c:	e0bffc03 	ldbu	r2,-16(fp)
 3200240:	e0bffe15 	stw	r2,-8(fp)
 3200244:	e0fffe17 	ldw	r3,-8(fp)
 3200248:	18800a20 	cmpeqi	r2,r3,40
 320024c:	1000371e 	bne	r2,zero,320032c <alt_uCOSIIErrorHandler+0x120>
 3200250:	e0fffe17 	ldw	r3,-8(fp)
 3200254:	18800a48 	cmpgei	r2,r3,41
 3200258:	10001a1e 	bne	r2,zero,32002c4 <alt_uCOSIIErrorHandler+0xb8>
 320025c:	e0fffe17 	ldw	r3,-8(fp)
 3200260:	18800120 	cmpeqi	r2,r3,4
 3200264:	1000761e 	bne	r2,zero,3200440 <alt_uCOSIIErrorHandler+0x234>
 3200268:	e0fffe17 	ldw	r3,-8(fp)
 320026c:	18800148 	cmpgei	r2,r3,5
 3200270:	10000a1e 	bne	r2,zero,320029c <alt_uCOSIIErrorHandler+0x90>
 3200274:	e0fffe17 	ldw	r3,-8(fp)
 3200278:	188000a0 	cmpeqi	r2,r3,2
 320027c:	1000911e 	bne	r2,zero,32004c4 <alt_uCOSIIErrorHandler+0x2b8>
 3200280:	e0fffe17 	ldw	r3,-8(fp)
 3200284:	188000c8 	cmpgei	r2,r3,3
 3200288:	1000771e 	bne	r2,zero,3200468 <alt_uCOSIIErrorHandler+0x25c>
 320028c:	e0fffe17 	ldw	r3,-8(fp)
 3200290:	18800060 	cmpeqi	r2,r3,1
 3200294:	10005e1e 	bne	r2,zero,3200410 <alt_uCOSIIErrorHandler+0x204>
 3200298:	0000d806 	br	32005fc <alt_uCOSIIErrorHandler+0x3f0>
 320029c:	e0fffe17 	ldw	r3,-8(fp)
 32002a0:	18800520 	cmpeqi	r2,r3,20
 32002a4:	10004f1e 	bne	r2,zero,32003e4 <alt_uCOSIIErrorHandler+0x1d8>
 32002a8:	e0fffe17 	ldw	r3,-8(fp)
 32002ac:	188007a0 	cmpeqi	r2,r3,30
 32002b0:	1000ad1e 	bne	r2,zero,3200568 <alt_uCOSIIErrorHandler+0x35c>
 32002b4:	e0fffe17 	ldw	r3,-8(fp)
 32002b8:	188002a0 	cmpeqi	r2,r3,10
 32002bc:	1000761e 	bne	r2,zero,3200498 <alt_uCOSIIErrorHandler+0x28c>
 32002c0:	0000ce06 	br	32005fc <alt_uCOSIIErrorHandler+0x3f0>
 32002c4:	e0fffe17 	ldw	r3,-8(fp)
 32002c8:	18801020 	cmpeqi	r2,r3,64
 32002cc:	10009c1e 	bne	r2,zero,3200540 <alt_uCOSIIErrorHandler+0x334>
 32002d0:	e0fffe17 	ldw	r3,-8(fp)
 32002d4:	18801048 	cmpgei	r2,r3,65
 32002d8:	10000a1e 	bne	r2,zero,3200304 <alt_uCOSIIErrorHandler+0xf8>
 32002dc:	e0fffe17 	ldw	r3,-8(fp)
 32002e0:	18800f60 	cmpeqi	r2,r3,61
 32002e4:	10008b1e 	bne	r2,zero,3200514 <alt_uCOSIIErrorHandler+0x308>
 32002e8:	e0fffe17 	ldw	r3,-8(fp)
 32002ec:	18800fa0 	cmpeqi	r2,r3,62
 32002f0:	10007e1e 	bne	r2,zero,32004ec <alt_uCOSIIErrorHandler+0x2e0>
 32002f4:	e0fffe17 	ldw	r3,-8(fp)
 32002f8:	18800aa0 	cmpeqi	r2,r3,42
 32002fc:	1000151e 	bne	r2,zero,3200354 <alt_uCOSIIErrorHandler+0x148>
 3200300:	0000be06 	br	32005fc <alt_uCOSIIErrorHandler+0x3f0>
 3200304:	e0fffe17 	ldw	r3,-8(fp)
 3200308:	18801920 	cmpeqi	r2,r3,100
 320030c:	1000a11e 	bne	r2,zero,3200594 <alt_uCOSIIErrorHandler+0x388>
 3200310:	e0fffe17 	ldw	r3,-8(fp)
 3200314:	18803fe0 	cmpeqi	r2,r3,255
 3200318:	1000aa1e 	bne	r2,zero,32005c4 <alt_uCOSIIErrorHandler+0x3b8>
 320031c:	e0fffe17 	ldw	r3,-8(fp)
 3200320:	188010a0 	cmpeqi	r2,r3,66
 3200324:	10001d1e 	bne	r2,zero,320039c <alt_uCOSIIErrorHandler+0x190>
 3200328:	0000b406 	br	32005fc <alt_uCOSIIErrorHandler+0x3f0>
   {  
      case OS_PRIO_EXIST:
         fprintf(stderr, "Attempted to assign task priority aready in use.\n");
 320032c:	0080c974 	movhi	r2,805
 3200330:	108a6304 	addi	r2,r2,10636
 3200334:	10800017 	ldw	r2,0(r2)
 3200338:	11c00317 	ldw	r7,12(r2)
 320033c:	0100c974 	movhi	r4,805
 3200340:	2130db04 	addi	r4,r4,-15508
 3200344:	01400044 	movi	r5,1
 3200348:	01800c44 	movi	r6,49
 320034c:	3205fb00 	call	3205fb0 <fwrite>
         break;
 3200350:	0000c106 	br	3200658 <alt_uCOSIIErrorHandler+0x44c>
      case OS_PRIO_INVALID:
         fprintf(stderr, "Specified task priority higher than allowed max.\n");
 3200354:	0080c974 	movhi	r2,805
 3200358:	108a6304 	addi	r2,r2,10636
 320035c:	10800017 	ldw	r2,0(r2)
 3200360:	11c00317 	ldw	r7,12(r2)
 3200364:	0100c974 	movhi	r4,805
 3200368:	2130e804 	addi	r4,r4,-15456
 320036c:	01400044 	movi	r5,1
 3200370:	01800c44 	movi	r6,49
 3200374:	3205fb00 	call	3205fb0 <fwrite>
         fprintf(stderr, "Task can't be assigned a priority higher than %d\n",
 3200378:	0080c974 	movhi	r2,805
 320037c:	108a6304 	addi	r2,r2,10636
 3200380:	10800017 	ldw	r2,0(r2)
 3200384:	11000317 	ldw	r4,12(r2)
 3200388:	0140c974 	movhi	r5,805
 320038c:	2970f504 	addi	r5,r5,-15404
 3200390:	01800504 	movi	r6,20
 3200394:	3204ef40 	call	3204ef4 <fprintf>
            OS_LOWEST_PRIO);
         break;
 3200398:	0000af06 	br	3200658 <alt_uCOSIIErrorHandler+0x44c>
      case OS_NO_MORE_TCB:
         fprintf(stderr, "Task Control Blocks have been exhausted\n");
 320039c:	0080c974 	movhi	r2,805
 32003a0:	108a6304 	addi	r2,r2,10636
 32003a4:	10800017 	ldw	r2,0(r2)
 32003a8:	11c00317 	ldw	r7,12(r2)
 32003ac:	0100c974 	movhi	r4,805
 32003b0:	21310204 	addi	r4,r4,-15352
 32003b4:	01400044 	movi	r5,1
 32003b8:	01800a04 	movi	r6,40
 32003bc:	3205fb00 	call	3205fb0 <fwrite>
         fprintf(stderr, "Current max number of tasks is %d\n",OS_MAX_TASKS);
 32003c0:	0080c974 	movhi	r2,805
 32003c4:	108a6304 	addi	r2,r2,10636
 32003c8:	10800017 	ldw	r2,0(r2)
 32003cc:	11000317 	ldw	r4,12(r2)
 32003d0:	0140c974 	movhi	r5,805
 32003d4:	29710d04 	addi	r5,r5,-15308
 32003d8:	01800284 	movi	r6,10
 32003dc:	3204ef40 	call	3204ef4 <fprintf>
         break;
 32003e0:	00009d06 	br	3200658 <alt_uCOSIIErrorHandler+0x44c>
      case OS_MBOX_FULL:
         fault_level = NONE;
 32003e4:	e03ffb15 	stw	zero,-20(fp)
         fprintf(stderr, "Attempted Post to Mailbox already holding message\n");
 32003e8:	0080c974 	movhi	r2,805
 32003ec:	108a6304 	addi	r2,r2,10636
 32003f0:	10800017 	ldw	r2,0(r2)
 32003f4:	11c00317 	ldw	r7,12(r2)
 32003f8:	0100c974 	movhi	r4,805
 32003fc:	21311604 	addi	r4,r4,-15272
 3200400:	01400044 	movi	r5,1
 3200404:	01800c84 	movi	r6,50
 3200408:	3205fb00 	call	3205fb0 <fwrite>
         break;
 320040c:	00009206 	br	3200658 <alt_uCOSIIErrorHandler+0x44c>
      case OS_ERR_EVENT_TYPE:
         fault_level = TASK;
 3200410:	00800044 	movi	r2,1
 3200414:	e0bffb15 	stw	r2,-20(fp)
         fprintf(stderr, 
 3200418:	0080c974 	movhi	r2,805
 320041c:	108a6304 	addi	r2,r2,10636
 3200420:	10800017 	ldw	r2,0(r2)
 3200424:	11c00317 	ldw	r7,12(r2)
 3200428:	0100c974 	movhi	r4,805
 320042c:	21312304 	addi	r4,r4,-15220
 3200430:	01400044 	movi	r5,1
 3200434:	01801244 	movi	r6,73
 3200438:	3205fb00 	call	3205fb0 <fwrite>
"Attempted to access a resource with no match for the required data type.\n");
         break;
 320043c:	00008606 	br	3200658 <alt_uCOSIIErrorHandler+0x44c>
      case OS_ERR_PEVENT_NULL:
         fprintf(stderr, "Attempting to access a resource pointing to NULL\n");
 3200440:	0080c974 	movhi	r2,805
 3200444:	108a6304 	addi	r2,r2,10636
 3200448:	10800017 	ldw	r2,0(r2)
 320044c:	11c00317 	ldw	r7,12(r2)
 3200450:	0100c974 	movhi	r4,805
 3200454:	21313604 	addi	r4,r4,-15144
 3200458:	01400044 	movi	r5,1
 320045c:	01800c44 	movi	r6,49
 3200460:	3205fb00 	call	3205fb0 <fwrite>
         break;
 3200464:	00007c06 	br	3200658 <alt_uCOSIIErrorHandler+0x44c>
      case OS_ERR_POST_NULL_PTR:
         fault_level = TASK;
 3200468:	00800044 	movi	r2,1
 320046c:	e0bffb15 	stw	r2,-20(fp)
         fprintf(stderr, "Attempted to Post a NULL to a resource. \n");
 3200470:	0080c974 	movhi	r2,805
 3200474:	108a6304 	addi	r2,r2,10636
 3200478:	10800017 	ldw	r2,0(r2)
 320047c:	11c00317 	ldw	r7,12(r2)
 3200480:	0100c974 	movhi	r4,805
 3200484:	21314304 	addi	r4,r4,-15092
 3200488:	01400044 	movi	r5,1
 320048c:	01800a44 	movi	r6,41
 3200490:	3205fb00 	call	3205fb0 <fwrite>
         break;
 3200494:	00007006 	br	3200658 <alt_uCOSIIErrorHandler+0x44c>
      case OS_TIMEOUT:
         fault_level = NONE;
 3200498:	e03ffb15 	stw	zero,-20(fp)
         fprintf(stderr, "Resource not received in specified time\n");
 320049c:	0080c974 	movhi	r2,805
 32004a0:	108a6304 	addi	r2,r2,10636
 32004a4:	10800017 	ldw	r2,0(r2)
 32004a8:	11c00317 	ldw	r7,12(r2)
 32004ac:	0100c974 	movhi	r4,805
 32004b0:	21314e04 	addi	r4,r4,-15048
 32004b4:	01400044 	movi	r5,1
 32004b8:	01800a04 	movi	r6,40
 32004bc:	3205fb00 	call	3205fb0 <fwrite>
         break;
 32004c0:	00006506 	br	3200658 <alt_uCOSIIErrorHandler+0x44c>
      case OS_ERR_PEND_ISR:
         fprintf(stderr, "Attempting to pend for a resource in an ISR\n");
 32004c4:	0080c974 	movhi	r2,805
 32004c8:	108a6304 	addi	r2,r2,10636
 32004cc:	10800017 	ldw	r2,0(r2)
 32004d0:	11c00317 	ldw	r7,12(r2)
 32004d4:	0100c974 	movhi	r4,805
 32004d8:	21315904 	addi	r4,r4,-15004
 32004dc:	01400044 	movi	r5,1
 32004e0:	01800b04 	movi	r6,44
 32004e4:	3205fb00 	call	3205fb0 <fwrite>
         break;
 32004e8:	00005b06 	br	3200658 <alt_uCOSIIErrorHandler+0x44c>
      case OS_TASK_DEL_IDLE:
         fprintf(stderr, "Attempted to delete the IDLE task\n");
 32004ec:	0080c974 	movhi	r2,805
 32004f0:	108a6304 	addi	r2,r2,10636
 32004f4:	10800017 	ldw	r2,0(r2)
 32004f8:	11c00317 	ldw	r7,12(r2)
 32004fc:	0100c974 	movhi	r4,805
 3200500:	21316504 	addi	r4,r4,-14956
 3200504:	01400044 	movi	r5,1
 3200508:	01800884 	movi	r6,34
 320050c:	3205fb00 	call	3205fb0 <fwrite>
         break;
 3200510:	00005106 	br	3200658 <alt_uCOSIIErrorHandler+0x44c>
      case OS_TASK_DEL_ERR:
         fault_level = NONE;
 3200514:	e03ffb15 	stw	zero,-20(fp)
         fprintf(stderr, "Attempted to delete a task that does not exist\n");
 3200518:	0080c974 	movhi	r2,805
 320051c:	108a6304 	addi	r2,r2,10636
 3200520:	10800017 	ldw	r2,0(r2)
 3200524:	11c00317 	ldw	r7,12(r2)
 3200528:	0100c974 	movhi	r4,805
 320052c:	21316e04 	addi	r4,r4,-14920
 3200530:	01400044 	movi	r5,1
 3200534:	01800bc4 	movi	r6,47
 3200538:	3205fb00 	call	3205fb0 <fwrite>
         break;
 320053c:	00004606 	br	3200658 <alt_uCOSIIErrorHandler+0x44c>
      case OS_TASK_DEL_ISR:
         fprintf(stderr, "Attempted to delete a task from an ISR\n");
 3200540:	0080c974 	movhi	r2,805
 3200544:	108a6304 	addi	r2,r2,10636
 3200548:	10800017 	ldw	r2,0(r2)
 320054c:	11c00317 	ldw	r7,12(r2)
 3200550:	0100c974 	movhi	r4,805
 3200554:	21317a04 	addi	r4,r4,-14872
 3200558:	01400044 	movi	r5,1
 320055c:	018009c4 	movi	r6,39
 3200560:	3205fb00 	call	3205fb0 <fwrite>
         break;
 3200564:	00003c06 	br	3200658 <alt_uCOSIIErrorHandler+0x44c>
      case OS_Q_FULL:
         fault_level = NONE;
 3200568:	e03ffb15 	stw	zero,-20(fp)
         fprintf(stderr, "Attempted to post to a full message queue\n");
 320056c:	0080c974 	movhi	r2,805
 3200570:	108a6304 	addi	r2,r2,10636
 3200574:	10800017 	ldw	r2,0(r2)
 3200578:	11c00317 	ldw	r7,12(r2)
 320057c:	0100c974 	movhi	r4,805
 3200580:	21318404 	addi	r4,r4,-14832
 3200584:	01400044 	movi	r5,1
 3200588:	01800a84 	movi	r6,42
 320058c:	3205fb00 	call	3205fb0 <fwrite>
         break;
 3200590:	00003106 	br	3200658 <alt_uCOSIIErrorHandler+0x44c>
      case OS_ERR_NOT_MUTEX_OWNER:
         fault_level = TASK;
 3200594:	00800044 	movi	r2,1
 3200598:	e0bffb15 	stw	r2,-20(fp)
         fprintf(stderr, "Attempted to post a mutex not owned by the task\n");
 320059c:	0080c974 	movhi	r2,805
 32005a0:	108a6304 	addi	r2,r2,10636
 32005a4:	10800017 	ldw	r2,0(r2)
 32005a8:	11c00317 	ldw	r7,12(r2)
 32005ac:	0100c974 	movhi	r4,805
 32005b0:	21318f04 	addi	r4,r4,-14788
 32005b4:	01400044 	movi	r5,1
 32005b8:	01800c04 	movi	r6,48
 32005bc:	3205fb00 	call	3205fb0 <fwrite>
         break;
 32005c0:	00002506 	br	3200658 <alt_uCOSIIErrorHandler+0x44c>
      case EXPANDED_DIAGNOSIS_CODE:      
         fault_level = SYSTEM;
 32005c4:	00800084 	movi	r2,2
 32005c8:	e0bffb15 	stw	r2,-20(fp)
         printf(
 32005cc:	0100c974 	movhi	r4,805
 32005d0:	21319c04 	addi	r4,r4,-14736
 32005d4:	3206de00 	call	3206de0 <printf>
"\n[MicroC/OS-II]: See STDERR for expanded diagnosis translation.");    
         fprintf(stderr, "\n[MicroC/OS-II]: Expanded Diagnosis: %s.", 
 32005d8:	0080c974 	movhi	r2,805
 32005dc:	108a6304 	addi	r2,r2,10636
 32005e0:	10800017 	ldw	r2,0(r2)
 32005e4:	11000317 	ldw	r4,12(r2)
 32005e8:	e1bffd17 	ldw	r6,-12(fp)
 32005ec:	0140c974 	movhi	r5,805
 32005f0:	2971ac04 	addi	r5,r5,-14672
 32005f4:	3204ef40 	call	3204ef4 <fprintf>
                 (char *)expanded_diagnosis_ptr);
         break;           
 32005f8:	00001706 	br	3200658 <alt_uCOSIIErrorHandler+0x44c>
      default:
         printf("\n[MicroC/OS-II]: (Not a MicroC/OS-II error) See STDERR.\n");    
 32005fc:	0100c974 	movhi	r4,805
 3200600:	2131b704 	addi	r4,r4,-14628
 3200604:	32071080 	call	3207108 <puts>
         fprintf(stderr, "\n[MicroC/OS-II]:");
 3200608:	0080c974 	movhi	r2,805
 320060c:	108a6304 	addi	r2,r2,10636
 3200610:	10800017 	ldw	r2,0(r2)
 3200614:	11c00317 	ldw	r7,12(r2)
 3200618:	0100c974 	movhi	r4,805
 320061c:	2131c504 	addi	r4,r4,-14572
 3200620:	01400044 	movi	r5,1
 3200624:	01800404 	movi	r6,16
 3200628:	3205fb00 	call	3205fb0 <fwrite>
         fprintf(stderr, "\nError_code %d.\n", error_code);
 320062c:	0080c974 	movhi	r2,805
 3200630:	108a6304 	addi	r2,r2,10636
 3200634:	10800017 	ldw	r2,0(r2)
 3200638:	11000317 	ldw	r4,12(r2)
 320063c:	e1bffc03 	ldbu	r6,-16(fp)
 3200640:	0140c974 	movhi	r5,805
 3200644:	2971ca04 	addi	r5,r5,-14552
 3200648:	3204ef40 	call	3204ef4 <fprintf>
         perror("\n[MicroC/OS-II]: (Not a MicroC/OS-II error), ERRNO: ");
 320064c:	0100c974 	movhi	r4,805
 3200650:	2131cf04 	addi	r4,r4,-14532
 3200654:	3206dcc0 	call	3206dcc <perror>

   }

   /* Process the error based on the fault level, 
    * reenable scheduler if appropriate. */  
   switch (fault_level) {
 3200658:	e0bffb17 	ldw	r2,-20(fp)
 320065c:	e0bfff15 	stw	r2,-4(fp)
 3200660:	e0ffff17 	ldw	r3,-4(fp)
 3200664:	18800060 	cmpeqi	r2,r3,1
 3200668:	1000071e 	bne	r2,zero,3200688 <alt_uCOSIIErrorHandler+0x47c>
 320066c:	e0ffff17 	ldw	r3,-4(fp)
 3200670:	18800070 	cmpltui	r2,r3,1
 3200674:	10003f1e 	bne	r2,zero,3200774 <alt_uCOSIIErrorHandler+0x568>
 3200678:	e0ffff17 	ldw	r3,-4(fp)
 320067c:	188000a0 	cmpeqi	r2,r3,2
 3200680:	10001d1e 	bne	r2,zero,32006f8 <alt_uCOSIIErrorHandler+0x4ec>
 3200684:	00005806 	br	32007e8 <alt_uCOSIIErrorHandler+0x5dc>
      case TASK:
         /* Error can be isolated by killing the task */
         printf("\n[MicroC/OS-II]: See STDERR (FAULT_LEVEL is TASK).");
 3200688:	0100c974 	movhi	r4,805
 320068c:	2131dd04 	addi	r4,r4,-14476
 3200690:	3206de00 	call	3206de0 <printf>
         fprintf(stderr, "\n[MicroC/OS-II]: FAULT_LEVEL is TASK");
 3200694:	0080c974 	movhi	r2,805
 3200698:	108a6304 	addi	r2,r2,10636
 320069c:	10800017 	ldw	r2,0(r2)
 32006a0:	11c00317 	ldw	r7,12(r2)
 32006a4:	0100c974 	movhi	r4,805
 32006a8:	2131ea04 	addi	r4,r4,-14424
 32006ac:	01400044 	movi	r5,1
 32006b0:	01800904 	movi	r6,36
 32006b4:	3205fb00 	call	3205fb0 <fwrite>
         fprintf(stderr, "\n[MicroC/OS-II]: Task is being deleted.\n");
 32006b8:	0080c974 	movhi	r2,805
 32006bc:	108a6304 	addi	r2,r2,10636
 32006c0:	10800017 	ldw	r2,0(r2)
 32006c4:	11c00317 	ldw	r7,12(r2)
 32006c8:	0100c974 	movhi	r4,805
 32006cc:	2131f404 	addi	r4,r4,-14384
 32006d0:	01400044 	movi	r5,1
 32006d4:	01800a04 	movi	r6,40
 32006d8:	3205fb00 	call	3205fb0 <fwrite>
         OSSchedUnlock(); /* Reenable Task Switching */
 32006dc:	32160cc0 	call	32160cc <OSSchedUnlock>
         OSTaskDel(OS_PRIO_SELF);
 32006e0:	01003fc4 	movi	r4,255
 32006e4:	321c1840 	call	321c184 <OSTaskDel>
         /* Reinvoke uCOSII error handler in case task deletion fails, in 
          * which case fault_level for this secondary error will be SYSTEM. */
         alt_uCOSIIErrorHandler(error_code, 0);         
 32006e8:	e13ffc03 	ldbu	r4,-16(fp)
 32006ec:	000b883a 	mov	r5,zero
 32006f0:	320020c0 	call	320020c <alt_uCOSIIErrorHandler>
         break;
 32006f4:	00004806 	br	3200818 <alt_uCOSIIErrorHandler+0x60c>
      case SYSTEM:
         /* Total System Failure, Restart Required */
         printf("\n[MicroC/OS-II]: See STDERR (FAULT_LEVEL is SYSTEM).");    
 32006f8:	0100c974 	movhi	r4,805
 32006fc:	2131ff04 	addi	r4,r4,-14340
 3200700:	3206de00 	call	3206de0 <printf>
         fprintf(stderr, "\n[MicroC/OS-II]: FAULT_LEVEL is SYSTEM");
 3200704:	0080c974 	movhi	r2,805
 3200708:	108a6304 	addi	r2,r2,10636
 320070c:	10800017 	ldw	r2,0(r2)
 3200710:	11c00317 	ldw	r7,12(r2)
 3200714:	0100c974 	movhi	r4,805
 3200718:	21320d04 	addi	r4,r4,-14284
 320071c:	01400044 	movi	r5,1
 3200720:	01800984 	movi	r6,38
 3200724:	3205fb00 	call	3205fb0 <fwrite>
         fprintf(stderr, "\n[MicroC/OS-II]: FATAL Error, Restart required.");
 3200728:	0080c974 	movhi	r2,805
 320072c:	108a6304 	addi	r2,r2,10636
 3200730:	10800017 	ldw	r2,0(r2)
 3200734:	11c00317 	ldw	r7,12(r2)
 3200738:	0100c974 	movhi	r4,805
 320073c:	21321704 	addi	r4,r4,-14244
 3200740:	01400044 	movi	r5,1
 3200744:	01800bc4 	movi	r6,47
 3200748:	3205fb00 	call	3205fb0 <fwrite>
         fprintf(stderr, "\n[MicroC/OS-II]: Locking scheduler - endless loop.\n");
 320074c:	0080c974 	movhi	r2,805
 3200750:	108a6304 	addi	r2,r2,10636
 3200754:	10800017 	ldw	r2,0(r2)
 3200758:	11c00317 	ldw	r7,12(r2)
 320075c:	0100c974 	movhi	r4,805
 3200760:	21322304 	addi	r4,r4,-14196
 3200764:	01400044 	movi	r5,1
 3200768:	01800cc4 	movi	r6,51
 320076c:	3205fb00 	call	3205fb0 <fwrite>
         while(1); /* Since scheduler is locked,loop halts all task activity.*/
 3200770:	003fff06 	br	3200770 <alt_uCOSIIErrorHandler+0x564>
         break;
      case NONE:
         fprintf(stderr, "\n[MicroC/OS-II]: FAULT_LEVEL is NONE");
 3200774:	0080c974 	movhi	r2,805
 3200778:	108a6304 	addi	r2,r2,10636
 320077c:	10800017 	ldw	r2,0(r2)
 3200780:	11c00317 	ldw	r7,12(r2)
 3200784:	0100c974 	movhi	r4,805
 3200788:	21323004 	addi	r4,r4,-14144
 320078c:	01400044 	movi	r5,1
 3200790:	01800904 	movi	r6,36
 3200794:	3205fb00 	call	3205fb0 <fwrite>
         fprintf(stderr, "\n[MicroC/OS-II]: Informational error only, control"); 
 3200798:	0080c974 	movhi	r2,805
 320079c:	108a6304 	addi	r2,r2,10636
 32007a0:	10800017 	ldw	r2,0(r2)
 32007a4:	11c00317 	ldw	r7,12(r2)
 32007a8:	0100c974 	movhi	r4,805
 32007ac:	21323a04 	addi	r4,r4,-14104
 32007b0:	01400044 	movi	r5,1
 32007b4:	01800c84 	movi	r6,50
 32007b8:	3205fb00 	call	3205fb0 <fwrite>
         fprintf(stderr, 
 32007bc:	0080c974 	movhi	r2,805
 32007c0:	108a6304 	addi	r2,r2,10636
 32007c4:	10800017 	ldw	r2,0(r2)
 32007c8:	11c00317 	ldw	r7,12(r2)
 32007cc:	0100c974 	movhi	r4,805
 32007d0:	21324704 	addi	r4,r4,-14052
 32007d4:	01400044 	movi	r5,1
 32007d8:	01800f84 	movi	r6,62
 32007dc:	3205fb00 	call	3205fb0 <fwrite>
            "returned to task to complete processing at application level.\n");
         OSSchedUnlock(); /* Reenable Task Switching */
 32007e0:	32160cc0 	call	32160cc <OSSchedUnlock>
         return;   
 32007e4:	00000d06 	br	320081c <alt_uCOSIIErrorHandler+0x610>
         break;      
      default:
         printf("\n[MicroC/OS-II]: See STDERR (FAULT_LEVEL is Unknown).\n");
 32007e8:	0100c974 	movhi	r4,805
 32007ec:	21325704 	addi	r4,r4,-13988
 32007f0:	32071080 	call	3207108 <puts>
         fprintf(stderr, "\n[MicroC/OS-II]: FAULT_LEVEL is unknown!?!\n");
 32007f4:	0080c974 	movhi	r2,805
 32007f8:	108a6304 	addi	r2,r2,10636
 32007fc:	10800017 	ldw	r2,0(r2)
 3200800:	11c00317 	ldw	r7,12(r2)
 3200804:	0100c974 	movhi	r4,805
 3200808:	21326504 	addi	r4,r4,-13932
 320080c:	01400044 	movi	r5,1
 3200810:	01800ac4 	movi	r6,43
 3200814:	3205fb00 	call	3205fb0 <fwrite>
   }
   while(1); /* Correct Program Flow never gets here. */
 3200818:	003fff06 	br	3200818 <alt_uCOSIIErrorHandler+0x60c>
}
 320081c:	e037883a 	mov	sp,fp
 3200820:	dfc00117 	ldw	ra,4(sp)
 3200824:	df000017 	ldw	fp,0(sp)
 3200828:	dec00204 	addi	sp,sp,8
 320082c:	f800283a 	ret

03200830 <alt_NetworkErrorHandler>:

void alt_NetworkErrorHandler(INT8U error_code, void *expanded_diagnosis_ptr)
{
 3200830:	defffa04 	addi	sp,sp,-24
 3200834:	dfc00515 	stw	ra,20(sp)
 3200838:	df000415 	stw	fp,16(sp)
 320083c:	df000404 	addi	fp,sp,16
 3200840:	e17ffe15 	stw	r5,-8(fp)
 3200844:	e13ffd05 	stb	r4,-12(fp)
   FAULT_LEVEL fault_level;

   if(error_code == OS_NO_ERR)
 3200848:	e0bffd03 	ldbu	r2,-12(fp)
 320084c:	1005003a 	cmpeq	r2,r2,zero
 3200850:	1000981e 	bne	r2,zero,3200ab4 <alt_NetworkErrorHandler+0x284>
   {
      return;
   }

   fault_level = SYSTEM;   
 3200854:	00800084 	movi	r2,2
 3200858:	e0bffc15 	stw	r2,-16(fp)
   OSSchedLock();  /* Disable Task Switching but still service other IRQs */  
 320085c:	32160400 	call	3216040 <OSSchedLock>

   if (error_code == EXPANDED_DIAGNOSIS_CODE) 
 3200860:	e0bffd03 	ldbu	r2,-12(fp)
 3200864:	10803fd8 	cmpnei	r2,r2,255
 3200868:	1000111e 	bne	r2,zero,32008b0 <alt_NetworkErrorHandler+0x80>
   {
      fault_level = SYSTEM;
 320086c:	00800084 	movi	r2,2
 3200870:	e0bffc15 	stw	r2,-16(fp)
      printf("\n[Network]: See STDERR for expanded diagnosis translation.");    
 3200874:	0100c974 	movhi	r4,805
 3200878:	21327004 	addi	r4,r4,-13888
 320087c:	3206de00 	call	3206de0 <printf>
      fprintf(stderr, "\n[Network]: %s", (char *)expanded_diagnosis_ptr);
 3200880:	0080c974 	movhi	r2,805
 3200884:	108a6304 	addi	r2,r2,10636
 3200888:	10800017 	ldw	r2,0(r2)
 320088c:	11000317 	ldw	r4,12(r2)
 3200890:	e1bffe17 	ldw	r6,-8(fp)
 3200894:	0140c974 	movhi	r5,805
 3200898:	29727f04 	addi	r5,r5,-13828
 320089c:	3204ef40 	call	3204ef4 <fprintf>
      /* Check errno also in case it has been set. */
      perror("\n[Network]:  ERRNO: ");
 32008a0:	0100c974 	movhi	r4,805
 32008a4:	21328304 	addi	r4,r4,-13812
 32008a8:	3206dcc0 	call	3206dcc <perror>
 32008ac:	00001006 	br	32008f0 <alt_NetworkErrorHandler+0xc0>
   }
   else 
   {
      fault_level = TASK;
 32008b0:	00800044 	movi	r2,1
 32008b4:	e0bffc15 	stw	r2,-16(fp)
      printf("\n[Network]: See STDERR.\n");    
 32008b8:	0100c974 	movhi	r4,805
 32008bc:	21328904 	addi	r4,r4,-13788
 32008c0:	32071080 	call	3207108 <puts>
      fprintf(stderr, "\n[Network]: Error_code %d!\n", error_code);        
 32008c4:	0080c974 	movhi	r2,805
 32008c8:	108a6304 	addi	r2,r2,10636
 32008cc:	10800017 	ldw	r2,0(r2)
 32008d0:	11000317 	ldw	r4,12(r2)
 32008d4:	e1bffd03 	ldbu	r6,-12(fp)
 32008d8:	0140c974 	movhi	r5,805
 32008dc:	29728f04 	addi	r5,r5,-13764
 32008e0:	3204ef40 	call	3204ef4 <fprintf>
      perror("\n[Network]:  ERRNO: ");
 32008e4:	0100c974 	movhi	r4,805
 32008e8:	21328304 	addi	r4,r4,-13812
 32008ec:	3206dcc0 	call	3206dcc <perror>
   }

   /* Process error based on fault level, reenable scheduler if appropriate. */     
   switch (fault_level) 
 32008f0:	e0bffc17 	ldw	r2,-16(fp)
 32008f4:	e0bfff15 	stw	r2,-4(fp)
 32008f8:	e0ffff17 	ldw	r3,-4(fp)
 32008fc:	18800060 	cmpeqi	r2,r3,1
 3200900:	1000071e 	bne	r2,zero,3200920 <alt_NetworkErrorHandler+0xf0>
 3200904:	e0ffff17 	ldw	r3,-4(fp)
 3200908:	18800070 	cmpltui	r2,r3,1
 320090c:	10003f1e 	bne	r2,zero,3200a0c <alt_NetworkErrorHandler+0x1dc>
 3200910:	e0ffff17 	ldw	r3,-4(fp)
 3200914:	188000a0 	cmpeqi	r2,r3,2
 3200918:	10001d1e 	bne	r2,zero,3200990 <alt_NetworkErrorHandler+0x160>
 320091c:	00005806 	br	3200a80 <alt_NetworkErrorHandler+0x250>
   {
      case TASK:
         /* Error can be isolated by killing the task */
         printf("\n[Network]: See STDERR (FAULT_LEVEL is TASK).");
 3200920:	0100c974 	movhi	r4,805
 3200924:	21329604 	addi	r4,r4,-13736
 3200928:	3206de00 	call	3206de0 <printf>
         fprintf(stderr, "\n[Network]: FAULT_LEVEL is TASK");
 320092c:	0080c974 	movhi	r2,805
 3200930:	108a6304 	addi	r2,r2,10636
 3200934:	10800017 	ldw	r2,0(r2)
 3200938:	11c00317 	ldw	r7,12(r2)
 320093c:	0100c974 	movhi	r4,805
 3200940:	2132a204 	addi	r4,r4,-13688
 3200944:	01400044 	movi	r5,1
 3200948:	018007c4 	movi	r6,31
 320094c:	3205fb00 	call	3205fb0 <fwrite>
         fprintf(stderr, "\n[Network]: Task is being deleted.\n");
 3200950:	0080c974 	movhi	r2,805
 3200954:	108a6304 	addi	r2,r2,10636
 3200958:	10800017 	ldw	r2,0(r2)
 320095c:	11c00317 	ldw	r7,12(r2)
 3200960:	0100c974 	movhi	r4,805
 3200964:	2132aa04 	addi	r4,r4,-13656
 3200968:	01400044 	movi	r5,1
 320096c:	018008c4 	movi	r6,35
 3200970:	3205fb00 	call	3205fb0 <fwrite>
         OSSchedUnlock(); /* Reenable Task Switching */
 3200974:	32160cc0 	call	32160cc <OSSchedUnlock>
         OSTaskDel(OS_PRIO_SELF);
 3200978:	01003fc4 	movi	r4,255
 320097c:	321c1840 	call	321c184 <OSTaskDel>
         /* Reinvoke uCOSII error handler in case task deletion fails, in 
          * which case fault_level for this secondary error will be SYSTEM. */
         alt_uCOSIIErrorHandler(error_code, 0);         
 3200980:	e13ffd03 	ldbu	r4,-12(fp)
 3200984:	000b883a 	mov	r5,zero
 3200988:	320020c0 	call	320020c <alt_uCOSIIErrorHandler>
         break;
 320098c:	00004806 	br	3200ab0 <alt_NetworkErrorHandler+0x280>
      case SYSTEM:
         /* Total System Failure, Restart Required */
         printf("\n[Network]: See STDERR (FAULT_LEVEL is SYSTEM).");    
 3200990:	0100c974 	movhi	r4,805
 3200994:	2132b304 	addi	r4,r4,-13620
 3200998:	3206de00 	call	3206de0 <printf>
         fprintf(stderr, "\n[Network]: FAULT_LEVEL is SYSTEM.");
 320099c:	0080c974 	movhi	r2,805
 32009a0:	108a6304 	addi	r2,r2,10636
 32009a4:	10800017 	ldw	r2,0(r2)
 32009a8:	11c00317 	ldw	r7,12(r2)
 32009ac:	0100c974 	movhi	r4,805
 32009b0:	2132bf04 	addi	r4,r4,-13572
 32009b4:	01400044 	movi	r5,1
 32009b8:	01800884 	movi	r6,34
 32009bc:	3205fb00 	call	3205fb0 <fwrite>
         fprintf(stderr, "\n[Network]: FATAL Error, Restart required.");
 32009c0:	0080c974 	movhi	r2,805
 32009c4:	108a6304 	addi	r2,r2,10636
 32009c8:	10800017 	ldw	r2,0(r2)
 32009cc:	11c00317 	ldw	r7,12(r2)
 32009d0:	0100c974 	movhi	r4,805
 32009d4:	2132c804 	addi	r4,r4,-13536
 32009d8:	01400044 	movi	r5,1
 32009dc:	01800a84 	movi	r6,42
 32009e0:	3205fb00 	call	3205fb0 <fwrite>
         fprintf(stderr, "\n[Network]: Locking scheduler - endless loop.\n");
 32009e4:	0080c974 	movhi	r2,805
 32009e8:	108a6304 	addi	r2,r2,10636
 32009ec:	10800017 	ldw	r2,0(r2)
 32009f0:	11c00317 	ldw	r7,12(r2)
 32009f4:	0100c974 	movhi	r4,805
 32009f8:	2132d304 	addi	r4,r4,-13492
 32009fc:	01400044 	movi	r5,1
 3200a00:	01800b84 	movi	r6,46
 3200a04:	3205fb00 	call	3205fb0 <fwrite>
         while(1); /* Since scheduler is locked, loop halts all task activity.*/
 3200a08:	003fff06 	br	3200a08 <alt_NetworkErrorHandler+0x1d8>
         break;
      case NONE:
         fprintf(stderr, "\n[Network]: FAULT_LEVEL is NONE.");
 3200a0c:	0080c974 	movhi	r2,805
 3200a10:	108a6304 	addi	r2,r2,10636
 3200a14:	10800017 	ldw	r2,0(r2)
 3200a18:	11c00317 	ldw	r7,12(r2)
 3200a1c:	0100c974 	movhi	r4,805
 3200a20:	2132df04 	addi	r4,r4,-13444
 3200a24:	01400044 	movi	r5,1
 3200a28:	01800804 	movi	r6,32
 3200a2c:	3205fb00 	call	3205fb0 <fwrite>
         fprintf(stderr, "\n[Network]: Informational "
 3200a30:	0080c974 	movhi	r2,805
 3200a34:	108a6304 	addi	r2,r2,10636
 3200a38:	10800017 	ldw	r2,0(r2)
 3200a3c:	11c00317 	ldw	r7,12(r2)
 3200a40:	0100c974 	movhi	r4,805
 3200a44:	2132e804 	addi	r4,r4,-13408
 3200a48:	01400044 	movi	r5,1
 3200a4c:	01800d84 	movi	r6,54
 3200a50:	3205fb00 	call	3205fb0 <fwrite>
                         "error only, control returned");
         fprintf(stderr, 
 3200a54:	0080c974 	movhi	r2,805
 3200a58:	108a6304 	addi	r2,r2,10636
 3200a5c:	10800017 	ldw	r2,0(r2)
 3200a60:	11c00317 	ldw	r7,12(r2)
 3200a64:	0100c974 	movhi	r4,805
 3200a68:	2132f604 	addi	r4,r4,-13352
 3200a6c:	01400044 	movi	r5,1
 3200a70:	01800e44 	movi	r6,57
 3200a74:	3205fb00 	call	3205fb0 <fwrite>
            "to task to complete processing at the application level.\n");
         OSSchedUnlock(); /* Reenable Task Switching */ 
 3200a78:	32160cc0 	call	32160cc <OSSchedUnlock>
         return;
 3200a7c:	00000d06 	br	3200ab4 <alt_NetworkErrorHandler+0x284>
         break;         
      default:
         printf("\n[Network]: See STDERR (FAULT_LEVEL is unknown).\n");    
 3200a80:	0100c974 	movhi	r4,805
 3200a84:	21330504 	addi	r4,r4,-13292
 3200a88:	32071080 	call	3207108 <puts>
         fprintf(stderr, "\n[Network] FAULT_LEVEL is unknown !?!\n");
 3200a8c:	0080c974 	movhi	r2,805
 3200a90:	108a6304 	addi	r2,r2,10636
 3200a94:	10800017 	ldw	r2,0(r2)
 3200a98:	11c00317 	ldw	r7,12(r2)
 3200a9c:	0100c974 	movhi	r4,805
 3200aa0:	21331204 	addi	r4,r4,-13240
 3200aa4:	01400044 	movi	r5,1
 3200aa8:	01800984 	movi	r6,38
 3200aac:	3205fb00 	call	3205fb0 <fwrite>
   }
   while(1); /* Correct Program Flow never gets here. */
 3200ab0:	003fff06 	br	3200ab0 <alt_NetworkErrorHandler+0x280>
}
 3200ab4:	e037883a 	mov	sp,fp
 3200ab8:	dfc00117 	ldw	ra,4(sp)
 3200abc:	df000017 	ldw	fp,0(sp)
 3200ac0:	dec00204 	addi	sp,sp,8
 3200ac4:	f800283a 	ret

03200ac8 <alt_SSSErrorHandler>:
   
   
void alt_SSSErrorHandler(INT8U error_code, 
                         void *expanded_diagnosis_ptr)
{
 3200ac8:	defff804 	addi	sp,sp,-32
 3200acc:	dfc00715 	stw	ra,28(sp)
 3200ad0:	df000615 	stw	fp,24(sp)
 3200ad4:	df000604 	addi	fp,sp,24
 3200ad8:	e17ffc15 	stw	r5,-16(fp)
 3200adc:	e13ffb05 	stb	r4,-20(fp)
   FAULT_LEVEL fault_level;
   
   if   (error_code == OS_NO_ERR)
 3200ae0:	e0bffb03 	ldbu	r2,-20(fp)
 3200ae4:	1005003a 	cmpeq	r2,r2,zero
 3200ae8:	1000ad1e 	bne	r2,zero,3200da0 <alt_SSSErrorHandler+0x2d8>
   {
      return;
   }

   fault_level = (error_code == OS_NO_ERR) ? NONE : SYSTEM;
 3200aec:	e0bffb03 	ldbu	r2,-20(fp)
 3200af0:	1004c03a 	cmpne	r2,r2,zero
 3200af4:	1000021e 	bne	r2,zero,3200b00 <alt_SSSErrorHandler+0x38>
 3200af8:	e03ffe15 	stw	zero,-8(fp)
 3200afc:	00000206 	br	3200b08 <alt_SSSErrorHandler+0x40>
 3200b00:	00800084 	movi	r2,2
 3200b04:	e0bffe15 	stw	r2,-8(fp)
 3200b08:	e0fffe17 	ldw	r3,-8(fp)
 3200b0c:	e0fffa15 	stw	r3,-24(fp)
   
   OSSchedLock();  /* Disable Task Switching but still service other IRQs */
 3200b10:	32160400 	call	3216040 <OSSchedLock>
   switch (error_code)
 3200b14:	e0bffb03 	ldbu	r2,-20(fp)
 3200b18:	e0bffd15 	stw	r2,-12(fp)
 3200b1c:	e0fffd17 	ldw	r3,-12(fp)
 3200b20:	188007a0 	cmpeqi	r2,r3,30
 3200b24:	1000121e 	bne	r2,zero,3200b70 <alt_SSSErrorHandler+0xa8>
 3200b28:	e0fffd17 	ldw	r3,-12(fp)
 3200b2c:	18803fe0 	cmpeqi	r2,r3,255
 3200b30:	1000011e 	bne	r2,zero,3200b38 <alt_SSSErrorHandler+0x70>
 3200b34:	00001906 	br	3200b9c <alt_SSSErrorHandler+0xd4>
   {
      case EXPANDED_DIAGNOSIS_CODE:      
         fault_level = SYSTEM;
 3200b38:	00800084 	movi	r2,2
 3200b3c:	e0bffa15 	stw	r2,-24(fp)
         printf("\n[SSS]: See STDERR for expanded diagnosis translation.");    
 3200b40:	0100c974 	movhi	r4,805
 3200b44:	21331c04 	addi	r4,r4,-13200
 3200b48:	3206de00 	call	3206de0 <printf>
         fprintf(stderr, "\n[SSS]: %s", (char *)expanded_diagnosis_ptr);
 3200b4c:	0080c974 	movhi	r2,805
 3200b50:	108a6304 	addi	r2,r2,10636
 3200b54:	10800017 	ldw	r2,0(r2)
 3200b58:	11000317 	ldw	r4,12(r2)
 3200b5c:	e1bffc17 	ldw	r6,-16(fp)
 3200b60:	0140c974 	movhi	r5,805
 3200b64:	29732a04 	addi	r5,r5,-13144
 3200b68:	3204ef40 	call	3204ef4 <fprintf>
         break;
 3200b6c:	00001b06 	br	3200bdc <alt_SSSErrorHandler+0x114>
         
      case OS_Q_FULL:
         fault_level = NONE;
 3200b70:	e03ffa15 	stw	zero,-24(fp)
         fprintf(stderr,"\n[SSS]: Attempted to post to a full message queue.");
 3200b74:	0080c974 	movhi	r2,805
 3200b78:	108a6304 	addi	r2,r2,10636
 3200b7c:	10800017 	ldw	r2,0(r2)
 3200b80:	11c00317 	ldw	r7,12(r2)
 3200b84:	0100c974 	movhi	r4,805
 3200b88:	21332d04 	addi	r4,r4,-13132
 3200b8c:	01400044 	movi	r5,1
 3200b90:	01800c84 	movi	r6,50
 3200b94:	3205fb00 	call	3205fb0 <fwrite>
         break;
 3200b98:	00001006 	br	3200bdc <alt_SSSErrorHandler+0x114>
      
      default:
         fault_level = SYSTEM;
 3200b9c:	00800084 	movi	r2,2
 3200ba0:	e0bffa15 	stw	r2,-24(fp)
         printf("\n[SSS]: See STDERR.\n");    
 3200ba4:	0100c974 	movhi	r4,805
 3200ba8:	21333a04 	addi	r4,r4,-13080
 3200bac:	32071080 	call	3207108 <puts>
         fprintf(stderr, "\n[SSS]: Error_code %d!", error_code);        
 3200bb0:	0080c974 	movhi	r2,805
 3200bb4:	108a6304 	addi	r2,r2,10636
 3200bb8:	10800017 	ldw	r2,0(r2)
 3200bbc:	11000317 	ldw	r4,12(r2)
 3200bc0:	e1bffb03 	ldbu	r6,-20(fp)
 3200bc4:	0140c974 	movhi	r5,805
 3200bc8:	29733f04 	addi	r5,r5,-13060
 3200bcc:	3204ef40 	call	3204ef4 <fprintf>
         perror("\n[SSS]:  ERRNO: ");
 3200bd0:	0100c974 	movhi	r4,805
 3200bd4:	21334504 	addi	r4,r4,-13036
 3200bd8:	3206dcc0 	call	3206dcc <perror>
   }

   /* Process the error based on the fault level, 
    * reenable scheduler if appropriate. */     
   switch (fault_level) 
 3200bdc:	e0bffa17 	ldw	r2,-24(fp)
 3200be0:	e0bfff15 	stw	r2,-4(fp)
 3200be4:	e0ffff17 	ldw	r3,-4(fp)
 3200be8:	18800060 	cmpeqi	r2,r3,1
 3200bec:	1000071e 	bne	r2,zero,3200c0c <alt_SSSErrorHandler+0x144>
 3200bf0:	e0ffff17 	ldw	r3,-4(fp)
 3200bf4:	18800070 	cmpltui	r2,r3,1
 3200bf8:	10003f1e 	bne	r2,zero,3200cf8 <alt_SSSErrorHandler+0x230>
 3200bfc:	e0ffff17 	ldw	r3,-4(fp)
 3200c00:	188000a0 	cmpeqi	r2,r3,2
 3200c04:	10001d1e 	bne	r2,zero,3200c7c <alt_SSSErrorHandler+0x1b4>
 3200c08:	00005806 	br	3200d6c <alt_SSSErrorHandler+0x2a4>
   {
      case TASK:
         /* Error can be isolated by killing the task */
         printf("\n[SSS]: See STDERR (FAULT_LEVEL is TASK).");
 3200c0c:	0100c974 	movhi	r4,805
 3200c10:	21334a04 	addi	r4,r4,-13016
 3200c14:	3206de00 	call	3206de0 <printf>
         fprintf(stderr, "\n[SSS]: FAULT_LEVEL is TASK");
 3200c18:	0080c974 	movhi	r2,805
 3200c1c:	108a6304 	addi	r2,r2,10636
 3200c20:	10800017 	ldw	r2,0(r2)
 3200c24:	11c00317 	ldw	r7,12(r2)
 3200c28:	0100c974 	movhi	r4,805
 3200c2c:	21335504 	addi	r4,r4,-12972
 3200c30:	01400044 	movi	r5,1
 3200c34:	018006c4 	movi	r6,27
 3200c38:	3205fb00 	call	3205fb0 <fwrite>
         fprintf(stderr, "\n[SSS]: Task is being deleted.\n");
 3200c3c:	0080c974 	movhi	r2,805
 3200c40:	108a6304 	addi	r2,r2,10636
 3200c44:	10800017 	ldw	r2,0(r2)
 3200c48:	11c00317 	ldw	r7,12(r2)
 3200c4c:	0100c974 	movhi	r4,805
 3200c50:	21335c04 	addi	r4,r4,-12944
 3200c54:	01400044 	movi	r5,1
 3200c58:	018007c4 	movi	r6,31
 3200c5c:	3205fb00 	call	3205fb0 <fwrite>
         OSSchedUnlock(); /* Reenable Task Switching */
 3200c60:	32160cc0 	call	32160cc <OSSchedUnlock>
         OSTaskDel(OS_PRIO_SELF);
 3200c64:	01003fc4 	movi	r4,255
 3200c68:	321c1840 	call	321c184 <OSTaskDel>
         /* Invoke uCOSII error handler in case task deletion fails, in 
          * which case fault_level for this secondary error will be SYSTEM. */
         alt_uCOSIIErrorHandler(error_code, 0);         
 3200c6c:	e13ffb03 	ldbu	r4,-20(fp)
 3200c70:	000b883a 	mov	r5,zero
 3200c74:	320020c0 	call	320020c <alt_uCOSIIErrorHandler>
         break;
 3200c78:	00004806 	br	3200d9c <alt_SSSErrorHandler+0x2d4>
      case SYSTEM:
          /* Total System Failure, Restart Required */
         printf("\n[SSS]: See STDERR (FAULT_LEVEL is SYSTEM).");    
 3200c7c:	0100c974 	movhi	r4,805
 3200c80:	21336404 	addi	r4,r4,-12912
 3200c84:	3206de00 	call	3206de0 <printf>
         fprintf(stderr, "\n[SSS]: FAULT_LEVEL is SYSTEM.");
 3200c88:	0080c974 	movhi	r2,805
 3200c8c:	108a6304 	addi	r2,r2,10636
 3200c90:	10800017 	ldw	r2,0(r2)
 3200c94:	11c00317 	ldw	r7,12(r2)
 3200c98:	0100c974 	movhi	r4,805
 3200c9c:	21336f04 	addi	r4,r4,-12868
 3200ca0:	01400044 	movi	r5,1
 3200ca4:	01800784 	movi	r6,30
 3200ca8:	3205fb00 	call	3205fb0 <fwrite>
         fprintf(stderr, "\n[SSS]: FATAL Error, Restart required.");
 3200cac:	0080c974 	movhi	r2,805
 3200cb0:	108a6304 	addi	r2,r2,10636
 3200cb4:	10800017 	ldw	r2,0(r2)
 3200cb8:	11c00317 	ldw	r7,12(r2)
 3200cbc:	0100c974 	movhi	r4,805
 3200cc0:	21337704 	addi	r4,r4,-12836
 3200cc4:	01400044 	movi	r5,1
 3200cc8:	01800984 	movi	r6,38
 3200ccc:	3205fb00 	call	3205fb0 <fwrite>
         fprintf(stderr, "\n[SSS]: Locking scheduler - endless loop.\n");
 3200cd0:	0080c974 	movhi	r2,805
 3200cd4:	108a6304 	addi	r2,r2,10636
 3200cd8:	10800017 	ldw	r2,0(r2)
 3200cdc:	11c00317 	ldw	r7,12(r2)
 3200ce0:	0100c974 	movhi	r4,805
 3200ce4:	21338104 	addi	r4,r4,-12796
 3200ce8:	01400044 	movi	r5,1
 3200cec:	01800a84 	movi	r6,42
 3200cf0:	3205fb00 	call	3205fb0 <fwrite>
         while(1); /* Since scheduler is locked, loop halts all task activity.*/
 3200cf4:	003fff06 	br	3200cf4 <alt_SSSErrorHandler+0x22c>
         break;
      case NONE:
         fprintf(stderr, "\n[SSS] FAULT_LEVEL is NONE.");
 3200cf8:	0080c974 	movhi	r2,805
 3200cfc:	108a6304 	addi	r2,r2,10636
 3200d00:	10800017 	ldw	r2,0(r2)
 3200d04:	11c00317 	ldw	r7,12(r2)
 3200d08:	0100c974 	movhi	r4,805
 3200d0c:	21338c04 	addi	r4,r4,-12752
 3200d10:	01400044 	movi	r5,1
 3200d14:	018006c4 	movi	r6,27
 3200d18:	3205fb00 	call	3205fb0 <fwrite>
         fprintf(stderr, 
 3200d1c:	0080c974 	movhi	r2,805
 3200d20:	108a6304 	addi	r2,r2,10636
 3200d24:	10800017 	ldw	r2,0(r2)
 3200d28:	11c00317 	ldw	r7,12(r2)
 3200d2c:	0100c974 	movhi	r4,805
 3200d30:	21339304 	addi	r4,r4,-12724
 3200d34:	01400044 	movi	r5,1
 3200d38:	01800f44 	movi	r6,61
 3200d3c:	3205fb00 	call	3205fb0 <fwrite>
            "\n[SSS] Informational error only, control returned to task to ");
         fprintf(stderr,
 3200d40:	0080c974 	movhi	r2,805
 3200d44:	108a6304 	addi	r2,r2,10636
 3200d48:	10800017 	ldw	r2,0(r2)
 3200d4c:	11c00317 	ldw	r7,12(r2)
 3200d50:	0100c974 	movhi	r4,805
 3200d54:	2133a304 	addi	r4,r4,-12660
 3200d58:	01400044 	movi	r5,1
 3200d5c:	01800b84 	movi	r6,46
 3200d60:	3205fb00 	call	3205fb0 <fwrite>
            "complete processing at the application level.\n");
         OSSchedUnlock(); /* Reenable Task Switching */ 
 3200d64:	32160cc0 	call	32160cc <OSSchedUnlock>
         return;         
 3200d68:	00000d06 	br	3200da0 <alt_SSSErrorHandler+0x2d8>
         break;
      default:
         printf("\n[SSS]: See STDERR (FAULT_LEVEL is Unknown).\n");
 3200d6c:	0100c974 	movhi	r4,805
 3200d70:	2133af04 	addi	r4,r4,-12612
 3200d74:	32071080 	call	3207108 <puts>
         fprintf(stderr, "\n[SSS] FAULT_LEVEL is unknown!?!\n");
 3200d78:	0080c974 	movhi	r2,805
 3200d7c:	108a6304 	addi	r2,r2,10636
 3200d80:	10800017 	ldw	r2,0(r2)
 3200d84:	11c00317 	ldw	r7,12(r2)
 3200d88:	0100c974 	movhi	r4,805
 3200d8c:	2133bb04 	addi	r4,r4,-12564
 3200d90:	01400044 	movi	r5,1
 3200d94:	01800844 	movi	r6,33
 3200d98:	3205fb00 	call	3205fb0 <fwrite>
   }
   while(1); /* Correct Program Flow never gets here. */
 3200d9c:	003fff06 	br	3200d9c <alt_SSSErrorHandler+0x2d4>
}
 3200da0:	e037883a 	mov	sp,fp
 3200da4:	dfc00117 	ldw	ra,4(sp)
 3200da8:	df000017 	ldw	fp,0(sp)
 3200dac:	dec00204 	addi	sp,sp,8
 3200db0:	f800283a 	ret

03200db4 <camera_init>:

// Creates the camera handler device
CAMERA camera = {CAMERA_BASE};

void camera_init()
{
 3200db4:	defffe04 	addi	sp,sp,-8
 3200db8:	dfc00115 	stw	ra,4(sp)
 3200dbc:	df000015 	stw	fp,0(sp)
 3200dc0:	d839883a 	mov	fp,sp
	IOWR_CAMERA_CONFIGURE(camera.base, 1); // Initialization
 3200dc4:	0080c974 	movhi	r2,805
 3200dc8:	10827504 	addi	r2,r2,2516
 3200dcc:	10800017 	ldw	r2,0(r2)
 3200dd0:	10800104 	addi	r2,r2,4
 3200dd4:	1007883a 	mov	r3,r2
 3200dd8:	00800044 	movi	r2,1
 3200ddc:	18800035 	stwio	r2,0(r3)
	while (!IORD_CAMERA_READY(camera.base));
 3200de0:	0080c974 	movhi	r2,805
 3200de4:	10827504 	addi	r2,r2,2516
 3200de8:	10800017 	ldw	r2,0(r2)
 3200dec:	10800104 	addi	r2,r2,4
 3200df0:	10800037 	ldwio	r2,0(r2)
 3200df4:	1005003a 	cmpeq	r2,r2,zero
 3200df8:	103ff91e 	bne	r2,zero,3200de0 <camera_init+0x2c>
	read_camera_registers(&camera);
 3200dfc:	0100c974 	movhi	r4,805
 3200e00:	21027504 	addi	r4,r4,2516
 3200e04:	3200e1c0 	call	3200e1c <read_camera_registers>
}
 3200e08:	e037883a 	mov	sp,fp
 3200e0c:	dfc00117 	ldw	ra,4(sp)
 3200e10:	df000017 	ldw	fp,0(sp)
 3200e14:	dec00204 	addi	sp,sp,8
 3200e18:	f800283a 	ret

03200e1c <read_camera_registers>:

/* Reads values of camera registers. */
void read_camera_registers(CAMERA *sp)
{
 3200e1c:	defffe04 	addi	sp,sp,-8
 3200e20:	df000115 	stw	fp,4(sp)
 3200e24:	df000104 	addi	fp,sp,4
 3200e28:	e13fff15 	stw	r4,-4(fp)
	sp->width = IORD_CAMERA_WIDTH(sp->base);
 3200e2c:	e0bfff17 	ldw	r2,-4(fp)
 3200e30:	10800017 	ldw	r2,0(r2)
 3200e34:	10800804 	addi	r2,r2,32
 3200e38:	10c00037 	ldwio	r3,0(r2)
 3200e3c:	e0bfff17 	ldw	r2,-4(fp)
 3200e40:	10c00115 	stw	r3,4(r2)
	sp->height = IORD_CAMERA_HEIGHT(sp->base);
 3200e44:	e0bfff17 	ldw	r2,-4(fp)
 3200e48:	10800017 	ldw	r2,0(r2)
 3200e4c:	10800a04 	addi	r2,r2,40
 3200e50:	10c00037 	ldwio	r3,0(r2)
 3200e54:	e0bfff17 	ldw	r2,-4(fp)
 3200e58:	10c00215 	stw	r3,8(r2)
	sp->exposure = IORD_CAMERA_EXPOSURE(sp->base);
 3200e5c:	e0bfff17 	ldw	r2,-4(fp)
 3200e60:	10800017 	ldw	r2,0(r2)
 3200e64:	10801804 	addi	r2,r2,96
 3200e68:	10c00037 	ldwio	r3,0(r2)
 3200e6c:	e0bfff17 	ldw	r2,-4(fp)
 3200e70:	10c00315 	stw	r3,12(r2)
	sp->start_column = IORD_CAMERA_START_COLUMN(sp->base);
 3200e74:	e0bfff17 	ldw	r2,-4(fp)
 3200e78:	10800017 	ldw	r2,0(r2)
 3200e7c:	10800e04 	addi	r2,r2,56
 3200e80:	10c00037 	ldwio	r3,0(r2)
 3200e84:	e0bfff17 	ldw	r2,-4(fp)
 3200e88:	10c00415 	stw	r3,16(r2)
	sp->start_row = IORD_CAMERA_START_ROW(sp->base);
 3200e8c:	e0bfff17 	ldw	r2,-4(fp)
 3200e90:	10800017 	ldw	r2,0(r2)
 3200e94:	10800c04 	addi	r2,r2,48
 3200e98:	10c00037 	ldwio	r3,0(r2)
 3200e9c:	e0bfff17 	ldw	r2,-4(fp)
 3200ea0:	10c00515 	stw	r3,20(r2)
	sp->column_size = IORD_CAMERA_COLUMN_SIZE(sp->base);
 3200ea4:	e0bfff17 	ldw	r2,-4(fp)
 3200ea8:	10800017 	ldw	r2,0(r2)
 3200eac:	10801204 	addi	r2,r2,72
 3200eb0:	10c00037 	ldwio	r3,0(r2)
 3200eb4:	e0bfff17 	ldw	r2,-4(fp)
 3200eb8:	10c00615 	stw	r3,24(r2)
	sp->row_size = IORD_CAMERA_ROW_SIZE(sp->base);
 3200ebc:	e0bfff17 	ldw	r2,-4(fp)
 3200ec0:	10800017 	ldw	r2,0(r2)
 3200ec4:	10801004 	addi	r2,r2,64
 3200ec8:	10c00037 	ldwio	r3,0(r2)
 3200ecc:	e0bfff17 	ldw	r2,-4(fp)
 3200ed0:	10c00715 	stw	r3,28(r2)
	sp->column_mode = IORD_CAMERA_COLUMN_MODE(sp->base);
 3200ed4:	e0bfff17 	ldw	r2,-4(fp)
 3200ed8:	10800017 	ldw	r2,0(r2)
 3200edc:	10801604 	addi	r2,r2,88
 3200ee0:	10c00037 	ldwio	r3,0(r2)
 3200ee4:	e0bfff17 	ldw	r2,-4(fp)
 3200ee8:	10c00815 	stw	r3,32(r2)
	sp->row_mode = IORD_CAMERA_ROW_MODE(sp->base);
 3200eec:	e0bfff17 	ldw	r2,-4(fp)
 3200ef0:	10800017 	ldw	r2,0(r2)
 3200ef4:	10801404 	addi	r2,r2,80
 3200ef8:	10c00037 	ldwio	r3,0(r2)
 3200efc:	e0bfff17 	ldw	r2,-4(fp)
 3200f00:	10c00915 	stw	r3,36(r2)
}
 3200f04:	e037883a 	mov	sp,fp
 3200f08:	df000017 	ldw	fp,0(sp)
 3200f0c:	dec00104 	addi	sp,sp,4
 3200f10:	f800283a 	ret

03200f14 <write_camera_registers>:

/* Writes values of camera registers. */
void write_camera_registers(CAMERA *sp)
{
 3200f14:	defffe04 	addi	sp,sp,-8
 3200f18:	df000115 	stw	fp,4(sp)
 3200f1c:	df000104 	addi	fp,sp,4
 3200f20:	e13fff15 	stw	r4,-4(fp)
	IOWR_CAMERA_WIDTH(sp->base, sp->width);
 3200f24:	e0bfff17 	ldw	r2,-4(fp)
 3200f28:	10800017 	ldw	r2,0(r2)
 3200f2c:	11000804 	addi	r4,r2,32
 3200f30:	e0bfff17 	ldw	r2,-4(fp)
 3200f34:	10c00117 	ldw	r3,4(r2)
 3200f38:	2005883a 	mov	r2,r4
 3200f3c:	10c00035 	stwio	r3,0(r2)
	IOWR_CAMERA_HEIGHT(sp->base, sp->height);
 3200f40:	e0bfff17 	ldw	r2,-4(fp)
 3200f44:	10800017 	ldw	r2,0(r2)
 3200f48:	11000a04 	addi	r4,r2,40
 3200f4c:	e0bfff17 	ldw	r2,-4(fp)
 3200f50:	10c00217 	ldw	r3,8(r2)
 3200f54:	2005883a 	mov	r2,r4
 3200f58:	10c00035 	stwio	r3,0(r2)
	IOWR_CAMERA_EXPOSURE(sp->base, sp->exposure);
 3200f5c:	e0bfff17 	ldw	r2,-4(fp)
 3200f60:	10800017 	ldw	r2,0(r2)
 3200f64:	11001804 	addi	r4,r2,96
 3200f68:	e0bfff17 	ldw	r2,-4(fp)
 3200f6c:	10c00317 	ldw	r3,12(r2)
 3200f70:	2005883a 	mov	r2,r4
 3200f74:	10c00035 	stwio	r3,0(r2)
	IOWR_CAMERA_START_COLUMN(sp->base, sp->start_column);
 3200f78:	e0bfff17 	ldw	r2,-4(fp)
 3200f7c:	10800017 	ldw	r2,0(r2)
 3200f80:	11000e04 	addi	r4,r2,56
 3200f84:	e0bfff17 	ldw	r2,-4(fp)
 3200f88:	10c00417 	ldw	r3,16(r2)
 3200f8c:	2005883a 	mov	r2,r4
 3200f90:	10c00035 	stwio	r3,0(r2)
	IOWR_CAMERA_START_ROW(sp->base, sp->start_row);
 3200f94:	e0bfff17 	ldw	r2,-4(fp)
 3200f98:	10800017 	ldw	r2,0(r2)
 3200f9c:	11000c04 	addi	r4,r2,48
 3200fa0:	e0bfff17 	ldw	r2,-4(fp)
 3200fa4:	10c00517 	ldw	r3,20(r2)
 3200fa8:	2005883a 	mov	r2,r4
 3200fac:	10c00035 	stwio	r3,0(r2)
	IOWR_CAMERA_COLUMN_SIZE(sp->base, sp->column_size);
 3200fb0:	e0bfff17 	ldw	r2,-4(fp)
 3200fb4:	10800017 	ldw	r2,0(r2)
 3200fb8:	11001204 	addi	r4,r2,72
 3200fbc:	e0bfff17 	ldw	r2,-4(fp)
 3200fc0:	10c00617 	ldw	r3,24(r2)
 3200fc4:	2005883a 	mov	r2,r4
 3200fc8:	10c00035 	stwio	r3,0(r2)
	IOWR_CAMERA_ROW_SIZE(sp->base, sp->row_size);
 3200fcc:	e0bfff17 	ldw	r2,-4(fp)
 3200fd0:	10800017 	ldw	r2,0(r2)
 3200fd4:	11001004 	addi	r4,r2,64
 3200fd8:	e0bfff17 	ldw	r2,-4(fp)
 3200fdc:	10c00717 	ldw	r3,28(r2)
 3200fe0:	2005883a 	mov	r2,r4
 3200fe4:	10c00035 	stwio	r3,0(r2)
	IOWR_CAMERA_COLUMN_MODE(sp->base, sp->column_mode);
 3200fe8:	e0bfff17 	ldw	r2,-4(fp)
 3200fec:	10800017 	ldw	r2,0(r2)
 3200ff0:	11001604 	addi	r4,r2,88
 3200ff4:	e0bfff17 	ldw	r2,-4(fp)
 3200ff8:	10c00817 	ldw	r3,32(r2)
 3200ffc:	2005883a 	mov	r2,r4
 3201000:	10c00035 	stwio	r3,0(r2)
	IOWR_CAMERA_ROW_MODE(sp->base, sp->row_mode);
 3201004:	e0bfff17 	ldw	r2,-4(fp)
 3201008:	10800017 	ldw	r2,0(r2)
 320100c:	11001404 	addi	r4,r2,80
 3201010:	e0bfff17 	ldw	r2,-4(fp)
 3201014:	10c00917 	ldw	r3,36(r2)
 3201018:	2005883a 	mov	r2,r4
 320101c:	10c00035 	stwio	r3,0(r2)
}
 3201020:	e037883a 	mov	sp,fp
 3201024:	df000017 	ldw	fp,0(sp)
 3201028:	dec00104 	addi	sp,sp,4
 320102c:	f800283a 	ret

03201030 <get_image_size>:

int get_image_size(CAMERA *sp, char *char_buffer)
{
 3201030:	defffb04 	addi	sp,sp,-20
 3201034:	dfc00415 	stw	ra,16(sp)
 3201038:	df000315 	stw	fp,12(sp)
 320103c:	df000304 	addi	fp,sp,12
 3201040:	e13ffe15 	stw	r4,-8(fp)
 3201044:	e17fff15 	stw	r5,-4(fp)
	int nchars = 0;
 3201048:	e03ffd15 	stw	zero,-12(fp)
	nchars = sprintf(char_buffer, "(%i,%i)", sp->width, sp->height);
 320104c:	e0bffe17 	ldw	r2,-8(fp)
 3201050:	11800117 	ldw	r6,4(r2)
 3201054:	e0bffe17 	ldw	r2,-8(fp)
 3201058:	11c00217 	ldw	r7,8(r2)
 320105c:	e13fff17 	ldw	r4,-4(fp)
 3201060:	0140c974 	movhi	r5,805
 3201064:	2973c404 	addi	r5,r5,-12528
 3201068:	32079c00 	call	32079c0 <sprintf>
 320106c:	e0bffd15 	stw	r2,-12(fp)
	return nchars;
 3201070:	e0bffd17 	ldw	r2,-12(fp)
}
 3201074:	e037883a 	mov	sp,fp
 3201078:	dfc00117 	ldw	ra,4(sp)
 320107c:	df000017 	ldw	fp,0(sp)
 3201080:	dec00204 	addi	sp,sp,8
 3201084:	f800283a 	ret

03201088 <set_image_size>:

int set_image_size(CAMERA *sp, char *char_buffer, int width, int height)
{
 3201088:	defffa04 	addi	sp,sp,-24
 320108c:	dfc00515 	stw	ra,20(sp)
 3201090:	df000415 	stw	fp,16(sp)
 3201094:	df000404 	addi	fp,sp,16
 3201098:	e13ffc15 	stw	r4,-16(fp)
 320109c:	e17ffd15 	stw	r5,-12(fp)
 32010a0:	e1bffe15 	stw	r6,-8(fp)
 32010a4:	e1ffff15 	stw	r7,-4(fp)
	sp->width = width;
 32010a8:	e0fffc17 	ldw	r3,-16(fp)
 32010ac:	e0bffe17 	ldw	r2,-8(fp)
 32010b0:	18800115 	stw	r2,4(r3)
	sp->height = height;
 32010b4:	e0fffc17 	ldw	r3,-16(fp)
 32010b8:	e0bfff17 	ldw	r2,-4(fp)
 32010bc:	18800215 	stw	r2,8(r3)
	return get_image_size(sp, char_buffer);
 32010c0:	e13ffc17 	ldw	r4,-16(fp)
 32010c4:	e17ffd17 	ldw	r5,-12(fp)
 32010c8:	32010300 	call	3201030 <get_image_size>
}
 32010cc:	e037883a 	mov	sp,fp
 32010d0:	dfc00117 	ldw	ra,4(sp)
 32010d4:	df000017 	ldw	fp,0(sp)
 32010d8:	dec00204 	addi	sp,sp,8
 32010dc:	f800283a 	ret

032010e0 <get_image_exposure>:

int get_image_exposure(CAMERA *sp, char *char_buffer)
{
 32010e0:	defffb04 	addi	sp,sp,-20
 32010e4:	dfc00415 	stw	ra,16(sp)
 32010e8:	df000315 	stw	fp,12(sp)
 32010ec:	df000304 	addi	fp,sp,12
 32010f0:	e13ffe15 	stw	r4,-8(fp)
 32010f4:	e17fff15 	stw	r5,-4(fp)
	int nchars = 0;
 32010f8:	e03ffd15 	stw	zero,-12(fp)
	nchars = sprintf(char_buffer, "%i", sp->exposure);
 32010fc:	e0bffe17 	ldw	r2,-8(fp)
 3201100:	11800317 	ldw	r6,12(r2)
 3201104:	e13fff17 	ldw	r4,-4(fp)
 3201108:	0140c974 	movhi	r5,805
 320110c:	2973c604 	addi	r5,r5,-12520
 3201110:	32079c00 	call	32079c0 <sprintf>
 3201114:	e0bffd15 	stw	r2,-12(fp)
	return nchars;
 3201118:	e0bffd17 	ldw	r2,-12(fp)
}
 320111c:	e037883a 	mov	sp,fp
 3201120:	dfc00117 	ldw	ra,4(sp)
 3201124:	df000017 	ldw	fp,0(sp)
 3201128:	dec00204 	addi	sp,sp,8
 320112c:	f800283a 	ret

03201130 <set_image_exposure>:

int set_image_exposure(CAMERA *sp, char *char_buffer, int exposure)
{
 3201130:	defffb04 	addi	sp,sp,-20
 3201134:	dfc00415 	stw	ra,16(sp)
 3201138:	df000315 	stw	fp,12(sp)
 320113c:	df000304 	addi	fp,sp,12
 3201140:	e13ffd15 	stw	r4,-12(fp)
 3201144:	e17ffe15 	stw	r5,-8(fp)
 3201148:	e1bfff15 	stw	r6,-4(fp)
	sp->exposure = exposure;
 320114c:	e0fffd17 	ldw	r3,-12(fp)
 3201150:	e0bfff17 	ldw	r2,-4(fp)
 3201154:	18800315 	stw	r2,12(r3)
	return get_image_exposure(sp, char_buffer);
 3201158:	e13ffd17 	ldw	r4,-12(fp)
 320115c:	e17ffe17 	ldw	r5,-8(fp)
 3201160:	32010e00 	call	32010e0 <get_image_exposure>
}
 3201164:	e037883a 	mov	sp,fp
 3201168:	dfc00117 	ldw	ra,4(sp)
 320116c:	df000017 	ldw	fp,0(sp)
 3201170:	dec00204 	addi	sp,sp,8
 3201174:	f800283a 	ret

03201178 <get_start_image>:

int get_start_image(CAMERA *sp, char *char_buffer)
{
 3201178:	defffb04 	addi	sp,sp,-20
 320117c:	dfc00415 	stw	ra,16(sp)
 3201180:	df000315 	stw	fp,12(sp)
 3201184:	df000304 	addi	fp,sp,12
 3201188:	e13ffe15 	stw	r4,-8(fp)
 320118c:	e17fff15 	stw	r5,-4(fp)
	int nchars = 0;
 3201190:	e03ffd15 	stw	zero,-12(fp)
	nchars = sprintf(char_buffer, "(%i,%i)", sp->start_column, sp->start_row);
 3201194:	e0bffe17 	ldw	r2,-8(fp)
 3201198:	11800417 	ldw	r6,16(r2)
 320119c:	e0bffe17 	ldw	r2,-8(fp)
 32011a0:	11c00517 	ldw	r7,20(r2)
 32011a4:	e13fff17 	ldw	r4,-4(fp)
 32011a8:	0140c974 	movhi	r5,805
 32011ac:	2973c404 	addi	r5,r5,-12528
 32011b0:	32079c00 	call	32079c0 <sprintf>
 32011b4:	e0bffd15 	stw	r2,-12(fp)
	return nchars;
 32011b8:	e0bffd17 	ldw	r2,-12(fp)
}
 32011bc:	e037883a 	mov	sp,fp
 32011c0:	dfc00117 	ldw	ra,4(sp)
 32011c4:	df000017 	ldw	fp,0(sp)
 32011c8:	dec00204 	addi	sp,sp,8
 32011cc:	f800283a 	ret

032011d0 <set_start_image>:

int set_start_image(CAMERA *sp, char *char_buffer, int start_column, int start_row)
{
 32011d0:	defffa04 	addi	sp,sp,-24
 32011d4:	dfc00515 	stw	ra,20(sp)
 32011d8:	df000415 	stw	fp,16(sp)
 32011dc:	df000404 	addi	fp,sp,16
 32011e0:	e13ffc15 	stw	r4,-16(fp)
 32011e4:	e17ffd15 	stw	r5,-12(fp)
 32011e8:	e1bffe15 	stw	r6,-8(fp)
 32011ec:	e1ffff15 	stw	r7,-4(fp)
	sp->start_column = start_column;
 32011f0:	e0fffc17 	ldw	r3,-16(fp)
 32011f4:	e0bffe17 	ldw	r2,-8(fp)
 32011f8:	18800415 	stw	r2,16(r3)
	sp->start_row = start_row;
 32011fc:	e0fffc17 	ldw	r3,-16(fp)
 3201200:	e0bfff17 	ldw	r2,-4(fp)
 3201204:	18800515 	stw	r2,20(r3)
	return get_start_image(sp, char_buffer);
 3201208:	e13ffc17 	ldw	r4,-16(fp)
 320120c:	e17ffd17 	ldw	r5,-12(fp)
 3201210:	32011780 	call	3201178 <get_start_image>
}
 3201214:	e037883a 	mov	sp,fp
 3201218:	dfc00117 	ldw	ra,4(sp)
 320121c:	df000017 	ldw	fp,0(sp)
 3201220:	dec00204 	addi	sp,sp,8
 3201224:	f800283a 	ret

03201228 <get_sensor_size>:

int get_sensor_size(CAMERA *sp, char *char_buffer)
{
 3201228:	defffb04 	addi	sp,sp,-20
 320122c:	dfc00415 	stw	ra,16(sp)
 3201230:	df000315 	stw	fp,12(sp)
 3201234:	df000304 	addi	fp,sp,12
 3201238:	e13ffe15 	stw	r4,-8(fp)
 320123c:	e17fff15 	stw	r5,-4(fp)
	int nchars = 0;
 3201240:	e03ffd15 	stw	zero,-12(fp)
	nchars = sprintf(char_buffer, "(%i,%i)", sp->column_size, sp->row_size);
 3201244:	e0bffe17 	ldw	r2,-8(fp)
 3201248:	11800617 	ldw	r6,24(r2)
 320124c:	e0bffe17 	ldw	r2,-8(fp)
 3201250:	11c00717 	ldw	r7,28(r2)
 3201254:	e13fff17 	ldw	r4,-4(fp)
 3201258:	0140c974 	movhi	r5,805
 320125c:	2973c404 	addi	r5,r5,-12528
 3201260:	32079c00 	call	32079c0 <sprintf>
 3201264:	e0bffd15 	stw	r2,-12(fp)
	return nchars;
 3201268:	e0bffd17 	ldw	r2,-12(fp)
}
 320126c:	e037883a 	mov	sp,fp
 3201270:	dfc00117 	ldw	ra,4(sp)
 3201274:	df000017 	ldw	fp,0(sp)
 3201278:	dec00204 	addi	sp,sp,8
 320127c:	f800283a 	ret

03201280 <set_sensor_size>:

int set_sensor_size(CAMERA *sp, char *char_buffer, int column_size, int row_size)
{
 3201280:	defffa04 	addi	sp,sp,-24
 3201284:	dfc00515 	stw	ra,20(sp)
 3201288:	df000415 	stw	fp,16(sp)
 320128c:	df000404 	addi	fp,sp,16
 3201290:	e13ffc15 	stw	r4,-16(fp)
 3201294:	e17ffd15 	stw	r5,-12(fp)
 3201298:	e1bffe15 	stw	r6,-8(fp)
 320129c:	e1ffff15 	stw	r7,-4(fp)
	sp->column_size = column_size;
 32012a0:	e0fffc17 	ldw	r3,-16(fp)
 32012a4:	e0bffe17 	ldw	r2,-8(fp)
 32012a8:	18800615 	stw	r2,24(r3)
	sp->row_size = row_size;
 32012ac:	e0fffc17 	ldw	r3,-16(fp)
 32012b0:	e0bfff17 	ldw	r2,-4(fp)
 32012b4:	18800715 	stw	r2,28(r3)
	return get_sensor_size(sp, char_buffer);
 32012b8:	e13ffc17 	ldw	r4,-16(fp)
 32012bc:	e17ffd17 	ldw	r5,-12(fp)
 32012c0:	32012280 	call	3201228 <get_sensor_size>
}
 32012c4:	e037883a 	mov	sp,fp
 32012c8:	dfc00117 	ldw	ra,4(sp)
 32012cc:	df000017 	ldw	fp,0(sp)
 32012d0:	dec00204 	addi	sp,sp,8
 32012d4:	f800283a 	ret

032012d8 <get_sensor_mode>:

int get_sensor_mode(CAMERA *sp, char *char_buffer)
{
 32012d8:	defffb04 	addi	sp,sp,-20
 32012dc:	dfc00415 	stw	ra,16(sp)
 32012e0:	df000315 	stw	fp,12(sp)
 32012e4:	df000304 	addi	fp,sp,12
 32012e8:	e13ffe15 	stw	r4,-8(fp)
 32012ec:	e17fff15 	stw	r5,-4(fp)
	int nchars = 0;
 32012f0:	e03ffd15 	stw	zero,-12(fp)
	nchars = sprintf(char_buffer, "(%i,%i)", sp->column_mode, sp->row_mode);
 32012f4:	e0bffe17 	ldw	r2,-8(fp)
 32012f8:	11800817 	ldw	r6,32(r2)
 32012fc:	e0bffe17 	ldw	r2,-8(fp)
 3201300:	11c00917 	ldw	r7,36(r2)
 3201304:	e13fff17 	ldw	r4,-4(fp)
 3201308:	0140c974 	movhi	r5,805
 320130c:	2973c404 	addi	r5,r5,-12528
 3201310:	32079c00 	call	32079c0 <sprintf>
 3201314:	e0bffd15 	stw	r2,-12(fp)
	return nchars;
 3201318:	e0bffd17 	ldw	r2,-12(fp)
}
 320131c:	e037883a 	mov	sp,fp
 3201320:	dfc00117 	ldw	ra,4(sp)
 3201324:	df000017 	ldw	fp,0(sp)
 3201328:	dec00204 	addi	sp,sp,8
 320132c:	f800283a 	ret

03201330 <set_sensor_mode>:

int set_sensor_mode(CAMERA *sp, char *char_buffer, int column_mode, int row_mode)
{
 3201330:	defffa04 	addi	sp,sp,-24
 3201334:	dfc00515 	stw	ra,20(sp)
 3201338:	df000415 	stw	fp,16(sp)
 320133c:	df000404 	addi	fp,sp,16
 3201340:	e13ffc15 	stw	r4,-16(fp)
 3201344:	e17ffd15 	stw	r5,-12(fp)
 3201348:	e1bffe15 	stw	r6,-8(fp)
 320134c:	e1ffff15 	stw	r7,-4(fp)
	sp->column_mode = column_mode;
 3201350:	e0fffc17 	ldw	r3,-16(fp)
 3201354:	e0bffe17 	ldw	r2,-8(fp)
 3201358:	18800815 	stw	r2,32(r3)
	sp->row_mode = row_mode;
 320135c:	e0fffc17 	ldw	r3,-16(fp)
 3201360:	e0bfff17 	ldw	r2,-4(fp)
 3201364:	18800915 	stw	r2,36(r3)
	return get_sensor_mode(sp, char_buffer);
 3201368:	e13ffc17 	ldw	r4,-16(fp)
 320136c:	e17ffd17 	ldw	r5,-12(fp)
 3201370:	32012d80 	call	32012d8 <get_sensor_mode>
}
 3201374:	e037883a 	mov	sp,fp
 3201378:	dfc00117 	ldw	ra,4(sp)
 320137c:	df000017 	ldw	fp,0(sp)
 3201380:	dec00204 	addi	sp,sp,8
 3201384:	f800283a 	ret

03201388 <camera_configure>:

/* Configures the camera sensor. */
int camera_configure(CAMERA *sp, char *char_buffer)
{
 3201388:	defffb04 	addi	sp,sp,-20
 320138c:	dfc00415 	stw	ra,16(sp)
 3201390:	df000315 	stw	fp,12(sp)
 3201394:	df000304 	addi	fp,sp,12
 3201398:	e13ffe15 	stw	r4,-8(fp)
 320139c:	e17fff15 	stw	r5,-4(fp)
	printf("Configuring camera sensor...\n");
 32013a0:	0100c974 	movhi	r4,805
 32013a4:	2133c704 	addi	r4,r4,-12516
 32013a8:	32071080 	call	3207108 <puts>
	write_camera_registers(sp);
 32013ac:	e13ffe17 	ldw	r4,-8(fp)
 32013b0:	3200f140 	call	3200f14 <write_camera_registers>
	IOWR_CAMERA_CONFIGURE(sp->base, 0);
 32013b4:	e0bffe17 	ldw	r2,-8(fp)
 32013b8:	10800017 	ldw	r2,0(r2)
 32013bc:	10800104 	addi	r2,r2,4
 32013c0:	10000035 	stwio	zero,0(r2)
	IOWR_CAMERA_CONFIGURE(sp->base, 1);
 32013c4:	e0bffe17 	ldw	r2,-8(fp)
 32013c8:	10800017 	ldw	r2,0(r2)
 32013cc:	10800104 	addi	r2,r2,4
 32013d0:	1007883a 	mov	r3,r2
 32013d4:	00800044 	movi	r2,1
 32013d8:	18800035 	stwio	r2,0(r3)
	while (!IORD_CAMERA_READY(sp->base));
 32013dc:	e0bffe17 	ldw	r2,-8(fp)
 32013e0:	10800017 	ldw	r2,0(r2)
 32013e4:	10800104 	addi	r2,r2,4
 32013e8:	10800037 	ldwio	r2,0(r2)
 32013ec:	1005003a 	cmpeq	r2,r2,zero
 32013f0:	103ffa1e 	bne	r2,zero,32013dc <camera_configure+0x54>
	printf("Camera sensor configured.\n");
 32013f4:	0100c974 	movhi	r4,805
 32013f8:	2133cf04 	addi	r4,r4,-12484
 32013fc:	32071080 	call	3207108 <puts>

	int nchars = 0;
 3201400:	e03ffd15 	stw	zero,-12(fp)
	nchars = sprintf(char_buffer, "Camera sensor configured.");
 3201404:	e0bfff17 	ldw	r2,-4(fp)
 3201408:	00c0c974 	movhi	r3,805
 320140c:	18f3cf04 	addi	r3,r3,-12484
 3201410:	1009883a 	mov	r4,r2
 3201414:	180b883a 	mov	r5,r3
 3201418:	01800684 	movi	r6,26
 320141c:	3206ad00 	call	3206ad0 <memcpy>
 3201420:	00800644 	movi	r2,25
 3201424:	e0bffd15 	stw	r2,-12(fp)
	return nchars;
 3201428:	e0bffd17 	ldw	r2,-12(fp)
}
 320142c:	e037883a 	mov	sp,fp
 3201430:	dfc00117 	ldw	ra,4(sp)
 3201434:	df000017 	ldw	fp,0(sp)
 3201438:	dec00204 	addi	sp,sp,8
 320143c:	f800283a 	ret

03201440 <select_sensor_output>:

/* Selects the sensor output. */
int select_sensor_output(CAMERA *sp, char *char_buffer, int output)
{
 3201440:	defffa04 	addi	sp,sp,-24
 3201444:	dfc00515 	stw	ra,20(sp)
 3201448:	df000415 	stw	fp,16(sp)
 320144c:	df000404 	addi	fp,sp,16
 3201450:	e13ffd15 	stw	r4,-12(fp)
 3201454:	e17ffe15 	stw	r5,-8(fp)
 3201458:	e1bfff15 	stw	r6,-4(fp)
	int nchars = 0;
 320145c:	e03ffc15 	stw	zero,-16(fp)
	if ((output < 7) && (output != 3)) {
 3201460:	e0bfff17 	ldw	r2,-4(fp)
 3201464:	108001c8 	cmpgei	r2,r2,7
 3201468:	1000101e 	bne	r2,zero,32014ac <select_sensor_output+0x6c>
 320146c:	e0bfff17 	ldw	r2,-4(fp)
 3201470:	108000e0 	cmpeqi	r2,r2,3
 3201474:	10000d1e 	bne	r2,zero,32014ac <select_sensor_output+0x6c>
		IOWR_CAMERA_CAPTURE_SELECT_SENSOR(sp->base, output);
 3201478:	e0bffd17 	ldw	r2,-12(fp)
 320147c:	10800017 	ldw	r2,0(r2)
 3201480:	10800304 	addi	r2,r2,12
 3201484:	1007883a 	mov	r3,r2
 3201488:	e0bfff17 	ldw	r2,-4(fp)
 320148c:	18800035 	stwio	r2,0(r3)
		nchars = sprintf(char_buffer, "%i", output);
 3201490:	e13ffe17 	ldw	r4,-8(fp)
 3201494:	0140c974 	movhi	r5,805
 3201498:	2973c604 	addi	r5,r5,-12520
 320149c:	e1bfff17 	ldw	r6,-4(fp)
 32014a0:	32079c00 	call	32079c0 <sprintf>
 32014a4:	e0bffc15 	stw	r2,-16(fp)

/* Selects the sensor output. */
int select_sensor_output(CAMERA *sp, char *char_buffer, int output)
{
	int nchars = 0;
	if ((output < 7) && (output != 3)) {
 32014a8:	00000906 	br	32014d0 <select_sensor_output+0x90>
		IOWR_CAMERA_CAPTURE_SELECT_SENSOR(sp->base, output);
		nchars = sprintf(char_buffer, "%i", output);
	}
	else {
		nchars = sprintf(char_buffer, "Wrong sensor output.");
 32014ac:	e0bffe17 	ldw	r2,-8(fp)
 32014b0:	00c0c974 	movhi	r3,805
 32014b4:	18f3d604 	addi	r3,r3,-12456
 32014b8:	1009883a 	mov	r4,r2
 32014bc:	180b883a 	mov	r5,r3
 32014c0:	01800544 	movi	r6,21
 32014c4:	3206ad00 	call	3206ad0 <memcpy>
 32014c8:	00800504 	movi	r2,20
 32014cc:	e0bffc15 	stw	r2,-16(fp)
	}
	return nchars;
 32014d0:	e0bffc17 	ldw	r2,-16(fp)
}
 32014d4:	e037883a 	mov	sp,fp
 32014d8:	dfc00117 	ldw	ra,4(sp)
 32014dc:	df000017 	ldw	fp,0(sp)
 32014e0:	dec00204 	addi	sp,sp,8
 32014e4:	f800283a 	ret

032014e8 <select_vga_output>:

/* Selects the vga output. */
int select_vga_output(CAMERA *sp, char *char_buffer)
{
 32014e8:	defffb04 	addi	sp,sp,-20
 32014ec:	dfc00415 	stw	ra,16(sp)
 32014f0:	df000315 	stw	fp,12(sp)
 32014f4:	df000304 	addi	fp,sp,12
 32014f8:	e13ffe15 	stw	r4,-8(fp)
 32014fc:	e17fff15 	stw	r5,-4(fp)
	static int vga = 0;

	printf("Configuring VGA...\n");
 3201500:	0100c974 	movhi	r4,805
 3201504:	2133dc04 	addi	r4,r4,-12432
 3201508:	32071080 	call	3207108 <puts>
	vga = ~vga;
 320150c:	d0a89117 	ldw	r2,-23996(gp)
 3201510:	0084303a 	nor	r2,zero,r2
 3201514:	d0a89115 	stw	r2,-23996(gp)
	IOWR_CAMERA_CAPTURE_SELECT_VGA(sp->base, vga);
 3201518:	e0bffe17 	ldw	r2,-8(fp)
 320151c:	10800017 	ldw	r2,0(r2)
 3201520:	10800204 	addi	r2,r2,8
 3201524:	d0e89117 	ldw	r3,-23996(gp)
 3201528:	10c00035 	stwio	r3,0(r2)
	IOWR_CAMERA_CONFIGURE(sp->base, 0);
 320152c:	e0bffe17 	ldw	r2,-8(fp)
 3201530:	10800017 	ldw	r2,0(r2)
 3201534:	10800104 	addi	r2,r2,4
 3201538:	10000035 	stwio	zero,0(r2)
	IOWR_CAMERA_CONFIGURE(sp->base, 1);
 320153c:	e0bffe17 	ldw	r2,-8(fp)
 3201540:	10800017 	ldw	r2,0(r2)
 3201544:	10800104 	addi	r2,r2,4
 3201548:	1007883a 	mov	r3,r2
 320154c:	00800044 	movi	r2,1
 3201550:	18800035 	stwio	r2,0(r3)
	while (!IORD_CAMERA_READY(sp->base));
 3201554:	e0bffe17 	ldw	r2,-8(fp)
 3201558:	10800017 	ldw	r2,0(r2)
 320155c:	10800104 	addi	r2,r2,4
 3201560:	10800037 	ldwio	r2,0(r2)
 3201564:	1005003a 	cmpeq	r2,r2,zero
 3201568:	103ffa1e 	bne	r2,zero,3201554 <select_vga_output+0x6c>
	if (vga) IOWR_CAMERA_CAPTURE_START(sp->base);
 320156c:	d0a89117 	ldw	r2,-23996(gp)
 3201570:	1005003a 	cmpeq	r2,r2,zero
 3201574:	1000061e 	bne	r2,zero,3201590 <select_vga_output+0xa8>
 3201578:	e0bffe17 	ldw	r2,-8(fp)
 320157c:	10800017 	ldw	r2,0(r2)
 3201580:	1007883a 	mov	r3,r2
 3201584:	00800044 	movi	r2,1
 3201588:	18800035 	stwio	r2,0(r3)
 320158c:	00000306 	br	320159c <select_vga_output+0xb4>
	else IOWR_CAMERA_CAPTURE_STOP(sp->base);
 3201590:	e0bffe17 	ldw	r2,-8(fp)
 3201594:	10800017 	ldw	r2,0(r2)
 3201598:	10000035 	stwio	zero,0(r2)
	printf("VGA output configured.\n");
 320159c:	0100c974 	movhi	r4,805
 32015a0:	2133e104 	addi	r4,r4,-12412
 32015a4:	32071080 	call	3207108 <puts>

	int nchars = 0;
 32015a8:	e03ffd15 	stw	zero,-12(fp)
	nchars = sprintf(char_buffer, "VGA output configured.");
 32015ac:	e0bfff17 	ldw	r2,-4(fp)
 32015b0:	00c0c974 	movhi	r3,805
 32015b4:	18f3e104 	addi	r3,r3,-12412
 32015b8:	1009883a 	mov	r4,r2
 32015bc:	180b883a 	mov	r5,r3
 32015c0:	018005c4 	movi	r6,23
 32015c4:	3206ad00 	call	3206ad0 <memcpy>
 32015c8:	00800584 	movi	r2,22
 32015cc:	e0bffd15 	stw	r2,-12(fp)
	return nchars;
 32015d0:	e0bffd17 	ldw	r2,-12(fp)
}
 32015d4:	e037883a 	mov	sp,fp
 32015d8:	dfc00117 	ldw	ra,4(sp)
 32015dc:	df000017 	ldw	fp,0(sp)
 32015e0:	dec00204 	addi	sp,sp,8
 32015e4:	f800283a 	ret

032015e8 <write_in_lcd>:
OS_STK    task1_stk[TASK_STACKSIZE];

#define TASK1_PRIORITY      10

/* Print a message in LCD */
void write_in_lcd(char* msg) {
 32015e8:	defffc04 	addi	sp,sp,-16
 32015ec:	dfc00315 	stw	ra,12(sp)
 32015f0:	df000215 	stw	fp,8(sp)
 32015f4:	df000204 	addi	fp,sp,8
 32015f8:	e13fff15 	stw	r4,-4(fp)
	FILE* fp;
	fp = fopen ("/dev/lcd", "w");
 32015fc:	0100c974 	movhi	r4,805
 3201600:	2133e704 	addi	r4,r4,-12388
 3201604:	0140c974 	movhi	r5,805
 3201608:	2973ea04 	addi	r5,r5,-12376
 320160c:	3204ed80 	call	3204ed8 <fopen>
 3201610:	e0bffe15 	stw	r2,-8(fp)
	if (fp!=NULL) {
 3201614:	e0bffe17 	ldw	r2,-8(fp)
 3201618:	1005003a 	cmpeq	r2,r2,zero
 320161c:	1000051e 	bne	r2,zero,3201634 <write_in_lcd+0x4c>
		fprintf(fp, "%s",msg);
 3201620:	e13fff17 	ldw	r4,-4(fp)
 3201624:	e17ffe17 	ldw	r5,-8(fp)
 3201628:	3204fc80 	call	3204fc8 <fputs>
		fclose (fp);
 320162c:	e13ffe17 	ldw	r4,-8(fp)
 3201630:	32048e00 	call	32048e0 <fclose>
	}
}
 3201634:	e037883a 	mov	sp,fp
 3201638:	dfc00117 	ldw	ra,4(sp)
 320163c:	df000017 	ldw	fp,0(sp)
 3201640:	dec00204 	addi	sp,sp,8
 3201644:	f800283a 	ret

03201648 <task1>:

// TODO: Group tasks in tasks.c file

/* Prints the time of execution in seconds from reset */
void task1(void* pdata) {
 3201648:	defff404 	addi	sp,sp,-48
 320164c:	dfc00b15 	stw	ra,44(sp)
 3201650:	df000a15 	stw	fp,40(sp)
 3201654:	df000a04 	addi	fp,sp,40
 3201658:	e13fff15 	stw	r4,-4(fp)
	// Camera initialization
	camera_init();
 320165c:	3200db40 	call	3200db4 <camera_init>
	// Trackers initialization
	trackers_init();
 3201660:	3203c080 	call	3203c08 <trackers_init>

	char msg[16];

	while (1) {
		// Show time of execution in seconds
		i++;
 3201664:	e0bffa17 	ldw	r2,-24(fp)
 3201668:	10800044 	addi	r2,r2,1
 320166c:	e0bffa15 	stw	r2,-24(fp)
		printf("%is Run...\r", i);
 3201670:	0100c974 	movhi	r4,805
 3201674:	2133eb04 	addi	r4,r4,-12372
 3201678:	e17ffa17 	ldw	r5,-24(fp)
 320167c:	3206de00 	call	3206de0 <printf>

		// Show in LCD: IP and TIME
		sprintf(msg, "#%d.%d.%d.%d\n%is Run...\n", IPADDR0, IPADDR1, IPADDR2, IPADDR3, i);
 3201680:	e13ffb04 	addi	r4,fp,-20
 3201684:	00800144 	movi	r2,5
 3201688:	d8800015 	stw	r2,0(sp)
 320168c:	00803544 	movi	r2,213
 3201690:	d8800115 	stw	r2,4(sp)
 3201694:	e0bffa17 	ldw	r2,-24(fp)
 3201698:	d8800215 	stw	r2,8(sp)
 320169c:	0140c974 	movhi	r5,805
 32016a0:	2973ee04 	addi	r5,r5,-12360
 32016a4:	01802b04 	movi	r6,172
 32016a8:	01c004c4 	movi	r7,19
 32016ac:	32079c00 	call	32079c0 <sprintf>
		write_in_lcd(msg);
 32016b0:	e13ffb04 	addi	r4,fp,-20
 32016b4:	32015e80 	call	32015e8 <write_in_lcd>

		OSTimeDlyHMSM(0, 0, 1, 0);
 32016b8:	0009883a 	mov	r4,zero
 32016bc:	000b883a 	mov	r5,zero
 32016c0:	01800044 	movi	r6,1
 32016c4:	000f883a 	mov	r7,zero
 32016c8:	321d3c80 	call	321d3c8 <OSTimeDlyHMSM>
	}
 32016cc:	003fe506 	br	3201664 <task1+0x1c>

032016d0 <SSSInitialTask>:
 * NicheStack is initialized from a task, so that RTOS will have started, and
 * I/O drivers are available.  Two tasks are created:
 *     "Inet main"  task with priority 2
 *     "clock tick" task with priority 3
 */
void SSSInitialTask(void *task_data) {
 32016d0:	defff704 	addi	sp,sp,-36
 32016d4:	dfc00815 	stw	ra,32(sp)
 32016d8:	df000715 	stw	fp,28(sp)
 32016dc:	df000704 	addi	fp,sp,28
 32016e0:	e13fff15 	stw	r4,-4(fp)
	INT8U error_code;
	alt_iniche_init();
 32016e4:	322b6180 	call	322b618 <alt_iniche_init>

	netmain();
 32016e8:	32268600 	call	3226860 <netmain>

	/* Wait for the network stack to be ready before proceeding.
	 * iniche_net_ready indicates that TCP/IP stack is ready, and IP address is obtained.
	 */
	while (!iniche_net_ready) TK_SLEEP(1);
 32016ec:	00000206 	br	32016f8 <SSSInitialTask+0x28>
 32016f0:	01000084 	movi	r4,2
 32016f4:	321d27c0 	call	321d27c <OSTimeDly>
 32016f8:	0080c974 	movhi	r2,805
 32016fc:	10932504 	addi	r2,r2,19604
 3201700:	10800017 	ldw	r2,0(r2)
 3201704:	1005003a 	cmpeq	r2,r2,zero
 3201708:	103ff91e 	bne	r2,zero,32016f0 <SSSInitialTask+0x20>


	/* Application Specific Task Launching Code Block Begin */

	printf("\nSimple Socket Server starting up\n");
 320170c:	0100c974 	movhi	r4,805
 3201710:	2133fb04 	addi	r4,r4,-12308
 3201714:	32071080 	call	3207108 <puts>

	/* Create the main simple socket server task. */
	TK_NEWTASK(&ssstask);
 3201718:	0100c974 	movhi	r4,805
 320171c:	21027f04 	addi	r4,r4,2556
 3201720:	322b2d80 	call	322b2d8 <TK_NEWTASK>

	/* Create the other tasks */
	//SSSCreateTasks();
	OSTaskCreateExt(task1,
 3201724:	0180c974 	movhi	r6,805
 3201728:	319da404 	addi	r6,r6,30352
 320172c:	00800284 	movi	r2,10
 3201730:	d8800015 	stw	r2,0(sp)
 3201734:	0080c974 	movhi	r2,805
 3201738:	1095a504 	addi	r2,r2,22164
 320173c:	d8800115 	stw	r2,4(sp)
 3201740:	00820004 	movi	r2,2048
 3201744:	d8800215 	stw	r2,8(sp)
 3201748:	d8000315 	stw	zero,12(sp)
 320174c:	d8000415 	stw	zero,16(sp)
 3201750:	0100c834 	movhi	r4,800
 3201754:	21059204 	addi	r4,r4,5704
 3201758:	000b883a 	mov	r5,zero
 320175c:	01c00284 	movi	r7,10
 3201760:	321bf840 	call	321bf84 <OSTaskCreateExt>

	/* Application Specific Task Launching Code Block End */


	/*This task is deleted because there is no need for it to run again */
	error_code = OSTaskDel(OS_PRIO_SELF);
 3201764:	01003fc4 	movi	r4,255
 3201768:	321c1840 	call	321c184 <OSTaskDel>
 320176c:	e0bffe05 	stb	r2,-8(fp)
	alt_uCOSIIErrorHandler(error_code, 0);
 3201770:	e13ffe03 	ldbu	r4,-8(fp)
 3201774:	000b883a 	mov	r5,zero
 3201778:	320020c0 	call	320020c <alt_uCOSIIErrorHandler>

	while (1); /* Correct Program Flow should never get here */
 320177c:	003fff06 	br	320177c <SSSInitialTask+0xac>

03201780 <main>:
}

/* Main creates a single task, SSSInitialTask, and starts task scheduler.
 */
int main(int argc, char* argv[], char* envp[]) {
 3201780:	defff504 	addi	sp,sp,-44
 3201784:	dfc00a15 	stw	ra,40(sp)
 3201788:	df000915 	stw	fp,36(sp)
 320178c:	df000904 	addi	fp,sp,36
 3201790:	e13ffd15 	stw	r4,-12(fp)
 3201794:	e17ffe15 	stw	r5,-8(fp)
 3201798:	e1bfff15 	stw	r6,-4(fp)

	INT8U error_code;

	/* Clear the RTOS timer */
	OSTimeSet(0);
 320179c:	0009883a 	mov	r4,zero
 32017a0:	321d7b00 	call	321d7b0 <OSTimeSet>

	/* SSSInitialTask will initialize the NicheStack TCP/IP Stack
	 * and then initialize the rest of the Simple Socket Server example
	 * RTOS structures and tasks.
	 */
	error_code = OSTaskCreateExt(SSSInitialTask,
 32017a4:	0180c9b4 	movhi	r6,806
 32017a8:	31a5a504 	addi	r6,r6,-26988
 32017ac:	00800144 	movi	r2,5
 32017b0:	d8800015 	stw	r2,0(sp)
 32017b4:	0080c974 	movhi	r2,805
 32017b8:	109da504 	addi	r2,r2,30356
 32017bc:	d8800115 	stw	r2,4(sp)
 32017c0:	00820004 	movi	r2,2048
 32017c4:	d8800215 	stw	r2,8(sp)
 32017c8:	d8000315 	stw	zero,12(sp)
 32017cc:	d8000415 	stw	zero,16(sp)
 32017d0:	0100c834 	movhi	r4,800
 32017d4:	2105b404 	addi	r4,r4,5840
 32017d8:	000b883a 	mov	r5,zero
 32017dc:	01c00144 	movi	r7,5
 32017e0:	321bf840 	call	321bf84 <OSTaskCreateExt>
 32017e4:	e0bffc05 	stb	r2,-16(fp)
			SSS_INITIAL_TASK_PRIORITY,
			SSSInitialTaskStk,
			TASK_STACKSIZE,
			NULL,
			0);
	alt_uCOSIIErrorHandler(error_code, 0);
 32017e8:	e13ffc03 	ldbu	r4,-16(fp)
 32017ec:	000b883a 	mov	r5,zero
 32017f0:	320020c0 	call	320020c <alt_uCOSIIErrorHandler>

	/*
	 * As with all MicroC/OS-II designs, once the initial thread(s) and
	 * associated RTOS resources are declared, we start the RTOS. That's it!
	 */
	OSStart();
 32017f4:	32161b00 	call	32161b0 <OSStart>

	while(1); /* Correct Program Flow never gets here. */
 32017f8:	003fff06 	br	32017f8 <main+0x78>

032017fc <get_mac_addr>:
* Read the MAC address in a board specific way. Prompt user to enter serial 
* number to generate MAC address if failed to read from flash.
*
*/
int get_mac_addr(NET net, unsigned char mac_addr[6])
{
 32017fc:	defff804 	addi	sp,sp,-32
 3201800:	dfc00715 	stw	ra,28(sp)
 3201804:	df000615 	stw	fp,24(sp)
 3201808:	df000604 	addi	fp,sp,24
 320180c:	e13ffe15 	stw	r4,-8(fp)
 3201810:	e17fff15 	stw	r5,-4(fp)

	error_t error = 0;
 3201814:	e03ffd15 	stw	zero,-12(fp)

#ifdef FIXED_MAC
	mac_addr[0] = DEFAULT_MAC_0;
 3201818:	e0bfff17 	ldw	r2,-4(fp)
 320181c:	10000005 	stb	zero,0(r2)
	mac_addr[1] = DEFAULT_MAC_1;
 3201820:	e0bfff17 	ldw	r2,-4(fp)
 3201824:	10c00044 	addi	r3,r2,1
 3201828:	008001c4 	movi	r2,7
 320182c:	18800005 	stb	r2,0(r3)
	mac_addr[2] = DEFAULT_MAC_2;
 3201830:	e0bfff17 	ldw	r2,-4(fp)
 3201834:	10c00084 	addi	r3,r2,2
 3201838:	00bffb44 	movi	r2,-19
 320183c:	18800005 	stb	r2,0(r3)
	mac_addr[3] = DEFAULT_MAC_3;
 3201840:	e0bfff17 	ldw	r2,-4(fp)
 3201844:	10c000c4 	addi	r3,r2,3
 3201848:	00bfffc4 	movi	r2,-1
 320184c:	18800005 	stb	r2,0(r3)
	mac_addr[4] = DEFAULT_MAC_4;
 3201850:	e0bfff17 	ldw	r2,-4(fp)
 3201854:	10c00104 	addi	r3,r2,4
 3201858:	00801ac4 	movi	r2,107
 320185c:	18800005 	stb	r2,0(r3)
	mac_addr[5] = DEFAULT_MAC_5;
 3201860:	e0bfff17 	ldw	r2,-4(fp)
 3201864:	10c00144 	addi	r3,r2,5
 3201868:	00bff1c4 	movi	r2,-57
 320186c:	18800005 	stb	r2,0(r3)

	printf("Your Ethernet MAC address is %02x:%02x:%02x:%02x:%02x:%02x\n",
 3201870:	e0bfff17 	ldw	r2,-4(fp)
 3201874:	10800003 	ldbu	r2,0(r2)
 3201878:	11403fcc 	andi	r5,r2,255
 320187c:	e0bfff17 	ldw	r2,-4(fp)
 3201880:	10800044 	addi	r2,r2,1
 3201884:	10800003 	ldbu	r2,0(r2)
 3201888:	11803fcc 	andi	r6,r2,255
 320188c:	e0bfff17 	ldw	r2,-4(fp)
 3201890:	10800084 	addi	r2,r2,2
 3201894:	10800003 	ldbu	r2,0(r2)
 3201898:	11c03fcc 	andi	r7,r2,255
 320189c:	e0bfff17 	ldw	r2,-4(fp)
 32018a0:	108000c4 	addi	r2,r2,3
 32018a4:	10800003 	ldbu	r2,0(r2)
 32018a8:	10c03fcc 	andi	r3,r2,255
 32018ac:	e0bfff17 	ldw	r2,-4(fp)
 32018b0:	10800104 	addi	r2,r2,4
 32018b4:	10800003 	ldbu	r2,0(r2)
 32018b8:	11003fcc 	andi	r4,r2,255
 32018bc:	e0bfff17 	ldw	r2,-4(fp)
 32018c0:	10800144 	addi	r2,r2,5
 32018c4:	10800003 	ldbu	r2,0(r2)
 32018c8:	10803fcc 	andi	r2,r2,255
 32018cc:	d8c00015 	stw	r3,0(sp)
 32018d0:	d9000115 	stw	r4,4(sp)
 32018d4:	d8800215 	stw	r2,8(sp)
 32018d8:	0100c974 	movhi	r4,805
 32018dc:	21340404 	addi	r4,r4,-12272
 32018e0:	3206de00 	call	3206de0 <printf>
        /* Failed read MAC address from flash, prompt user to enter serial 
           number to generate MAC address. */
        error = generate_mac_addr(mac_addr);
    }
#endif
    return error;
 32018e4:	e0bffd17 	ldw	r2,-12(fp)
}
 32018e8:	e037883a 	mov	sp,fp
 32018ec:	dfc00117 	ldw	ra,4(sp)
 32018f0:	df000017 	ldw	fp,0(sp)
 32018f4:	dec00204 	addi	sp,sp,8
 32018f8:	f800283a 	ret

032018fc <get_ip_addr>:
int get_ip_addr(alt_iniche_dev *p_dev,
                ip_addr* ipaddr,
                ip_addr* netmask,
                ip_addr* gw,
                int* use_dhcp)
{
 32018fc:	defff304 	addi	sp,sp,-52
 3201900:	dfc00c15 	stw	ra,48(sp)
 3201904:	df000b15 	stw	fp,44(sp)
 3201908:	df000b04 	addi	fp,sp,44
 320190c:	e13ffc15 	stw	r4,-16(fp)
 3201910:	e17ffd15 	stw	r5,-12(fp)
 3201914:	e1bffe15 	stw	r6,-8(fp)
 3201918:	e1ffff15 	stw	r7,-4(fp)

    IP4_ADDR(*ipaddr, IPADDR0, IPADDR1, IPADDR2, IPADDR3);
 320191c:	e0fffd17 	ldw	r3,-12(fp)
 3201920:	00b54174 	movhi	r2,54533
 3201924:	1084eb04 	addi	r2,r2,5036
 3201928:	18800015 	stw	r2,0(r3)
    IP4_ADDR(*gw, GWADDR0, GWADDR1, GWADDR2, GWADDR3);
 320192c:	e0ffff17 	ldw	r3,-4(fp)
 3201930:	00804174 	movhi	r2,261
 3201934:	1084eb04 	addi	r2,r2,5036
 3201938:	18800015 	stw	r2,0(r3)
    IP4_ADDR(*netmask, MSKADDR0, MSKADDR1, MSKADDR2, MSKADDR3);
 320193c:	e0fffe17 	ldw	r3,-8(fp)
 3201940:	00804034 	movhi	r2,256
 3201944:	10bfffc4 	addi	r2,r2,-1
 3201948:	18800015 	stw	r2,0(r3)

#if defined (DHCP_CLIENT) && ! defined (FIXED_IP)
   *use_dhcp = 1;
 320194c:	e0c00217 	ldw	r3,8(fp)
 3201950:	00800044 	movi	r2,1
 3201954:	18800015 	stw	r2,0(r3)
        ip4_addr3(*ipaddr),
        ip4_addr4(*ipaddr));
#endif /* not DHCP_CLIENT */

    char lcd_msg[20];
    sprintf(lcd_msg, "IP:%d.%d.%d.%d\n",
 3201958:	e0bffd17 	ldw	r2,-12(fp)
 320195c:	10800017 	ldw	r2,0(r2)
 3201960:	1004d63a 	srli	r2,r2,24
 3201964:	10c03fcc 	andi	r3,r2,255
 3201968:	e0bffd17 	ldw	r2,-12(fp)
 320196c:	10800017 	ldw	r2,0(r2)
 3201970:	1004d23a 	srli	r2,r2,8
 3201974:	10bfc00c 	andi	r2,r2,65280
 3201978:	1886b03a 	or	r3,r3,r2
 320197c:	e0bffd17 	ldw	r2,-12(fp)
 3201980:	10800017 	ldw	r2,0(r2)
 3201984:	10bfc00c 	andi	r2,r2,65280
 3201988:	1004923a 	slli	r2,r2,8
 320198c:	1886b03a 	or	r3,r3,r2
 3201990:	e0bffd17 	ldw	r2,-12(fp)
 3201994:	10800017 	ldw	r2,0(r2)
 3201998:	10803fcc 	andi	r2,r2,255
 320199c:	1004963a 	slli	r2,r2,24
 32019a0:	1884b03a 	or	r2,r3,r2
 32019a4:	1004d63a 	srli	r2,r2,24
 32019a8:	11803fcc 	andi	r6,r2,255
 32019ac:	e0bffd17 	ldw	r2,-12(fp)
 32019b0:	10800017 	ldw	r2,0(r2)
 32019b4:	1004d63a 	srli	r2,r2,24
 32019b8:	10c03fcc 	andi	r3,r2,255
 32019bc:	e0bffd17 	ldw	r2,-12(fp)
 32019c0:	10800017 	ldw	r2,0(r2)
 32019c4:	1004d23a 	srli	r2,r2,8
 32019c8:	10bfc00c 	andi	r2,r2,65280
 32019cc:	1886b03a 	or	r3,r3,r2
 32019d0:	e0bffd17 	ldw	r2,-12(fp)
 32019d4:	10800017 	ldw	r2,0(r2)
 32019d8:	10bfc00c 	andi	r2,r2,65280
 32019dc:	1004923a 	slli	r2,r2,8
 32019e0:	1886b03a 	or	r3,r3,r2
 32019e4:	e0bffd17 	ldw	r2,-12(fp)
 32019e8:	10800017 	ldw	r2,0(r2)
 32019ec:	10803fcc 	andi	r2,r2,255
 32019f0:	1004963a 	slli	r2,r2,24
 32019f4:	1884b03a 	or	r2,r3,r2
 32019f8:	1004d43a 	srli	r2,r2,16
 32019fc:	11c03fcc 	andi	r7,r2,255
 3201a00:	e0bffd17 	ldw	r2,-12(fp)
 3201a04:	10800017 	ldw	r2,0(r2)
 3201a08:	1004d63a 	srli	r2,r2,24
 3201a0c:	10c03fcc 	andi	r3,r2,255
 3201a10:	e0bffd17 	ldw	r2,-12(fp)
 3201a14:	10800017 	ldw	r2,0(r2)
 3201a18:	1004d23a 	srli	r2,r2,8
 3201a1c:	10bfc00c 	andi	r2,r2,65280
 3201a20:	1886b03a 	or	r3,r3,r2
 3201a24:	e0bffd17 	ldw	r2,-12(fp)
 3201a28:	10800017 	ldw	r2,0(r2)
 3201a2c:	10bfc00c 	andi	r2,r2,65280
 3201a30:	1004923a 	slli	r2,r2,8
 3201a34:	1886b03a 	or	r3,r3,r2
 3201a38:	e0bffd17 	ldw	r2,-12(fp)
 3201a3c:	10800017 	ldw	r2,0(r2)
 3201a40:	10803fcc 	andi	r2,r2,255
 3201a44:	1004963a 	slli	r2,r2,24
 3201a48:	1884b03a 	or	r2,r3,r2
 3201a4c:	1004d23a 	srli	r2,r2,8
 3201a50:	11003fcc 	andi	r4,r2,255
 3201a54:	e0bffd17 	ldw	r2,-12(fp)
 3201a58:	10800017 	ldw	r2,0(r2)
 3201a5c:	1004d63a 	srli	r2,r2,24
 3201a60:	10c03fcc 	andi	r3,r2,255
 3201a64:	e0bffd17 	ldw	r2,-12(fp)
 3201a68:	10800017 	ldw	r2,0(r2)
 3201a6c:	1004d23a 	srli	r2,r2,8
 3201a70:	10bfc00c 	andi	r2,r2,65280
 3201a74:	1886b03a 	or	r3,r3,r2
 3201a78:	e0bffd17 	ldw	r2,-12(fp)
 3201a7c:	10800017 	ldw	r2,0(r2)
 3201a80:	10bfc00c 	andi	r2,r2,65280
 3201a84:	1004923a 	slli	r2,r2,8
 3201a88:	1886b03a 	or	r3,r3,r2
 3201a8c:	e0bffd17 	ldw	r2,-12(fp)
 3201a90:	10800017 	ldw	r2,0(r2)
 3201a94:	10803fcc 	andi	r2,r2,255
 3201a98:	1004963a 	slli	r2,r2,24
 3201a9c:	1884b03a 	or	r2,r3,r2
 3201aa0:	10803fcc 	andi	r2,r2,255
 3201aa4:	d9000015 	stw	r4,0(sp)
 3201aa8:	d8800115 	stw	r2,4(sp)
 3201aac:	e13ff704 	addi	r4,fp,-36
 3201ab0:	0140c974 	movhi	r5,805
 3201ab4:	29741304 	addi	r5,r5,-12212
 3201ab8:	32079c00 	call	32079c0 <sprintf>
            ip4_addr1(*ipaddr),
            ip4_addr2(*ipaddr),
            ip4_addr3(*ipaddr),
            ip4_addr4(*ipaddr));
    write_in_lcd(lcd_msg);
 3201abc:	e13ff704 	addi	r4,fp,-36
 3201ac0:	32015e80 	call	32015e8 <write_in_lcd>

    /* Non-standard API: return 1 for success */
    return 1;
 3201ac4:	00800044 	movi	r2,1
}
 3201ac8:	e037883a 	mov	sp,fp
 3201acc:	dfc00117 	ldw	ra,4(sp)
 3201ad0:	df000017 	ldw	fp,0(sp)
 3201ad4:	dec00204 	addi	sp,sp,8
 3201ad8:	f800283a 	ret

03201adc <get_serial_number>:
*
* Prompt user to enter 9-digit serial number. 
*
*/
alt_u32 get_serial_number (void)
{
 3201adc:	defff804 	addi	sp,sp,-32
 3201ae0:	dfc00715 	stw	ra,28(sp)
 3201ae4:	df000615 	stw	fp,24(sp)
 3201ae8:	dc000515 	stw	r16,20(sp)
 3201aec:	df000504 	addi	fp,sp,20
    alt_u32 ser_num = 0;
 3201af0:	e03ffc15 	stw	zero,-16(fp)
    char serial_number[9];
    int i = 0;
 3201af4:	e03ffb15 	stw	zero,-20(fp)
    
    while(!ser_num)
 3201af8:	00006506 	br	3201c90 <get_serial_number+0x1b4>
    {
        printf("Please enter your 9-digit serial number. This is printed on a \n");
 3201afc:	0100c974 	movhi	r4,805
 3201b00:	21341704 	addi	r4,r4,-12196
 3201b04:	32071080 	call	3207108 <puts>
        printf("label under your Nios dev. board. The first 3 digits of the \n");
 3201b08:	0100c974 	movhi	r4,805
 3201b0c:	21342704 	addi	r4,r4,-12132
 3201b10:	32071080 	call	3207108 <puts>
        printf("label are ASJ and the serial number follows this.\n -->");
 3201b14:	0100c974 	movhi	r4,805
 3201b18:	21343704 	addi	r4,r4,-12068
 3201b1c:	3206de00 	call	3206de0 <printf>
        
        for(i=0; i<9; i++)
 3201b20:	e03ffb15 	stw	zero,-20(fp)
 3201b24:	00002806 	br	3201bc8 <get_serial_number+0xec>
        {
            serial_number[i] = getchar();
 3201b28:	e43ffb17 	ldw	r16,-20(fp)
 3201b2c:	0080c974 	movhi	r2,805
 3201b30:	108a6304 	addi	r2,r2,10636
 3201b34:	10800017 	ldw	r2,0(r2)
 3201b38:	11000117 	ldw	r4,4(r2)
 3201b3c:	3205ff00 	call	3205ff0 <getc>
 3201b40:	1007883a 	mov	r3,r2
 3201b44:	e0bffd04 	addi	r2,fp,-12
 3201b48:	1405883a 	add	r2,r2,r16
 3201b4c:	10c00005 	stb	r3,0(r2)
            putchar(serial_number[i]);
 3201b50:	e0fffb17 	ldw	r3,-20(fp)
 3201b54:	e0bffd04 	addi	r2,fp,-12
 3201b58:	10c5883a 	add	r2,r2,r3
 3201b5c:	10800003 	ldbu	r2,0(r2)
 3201b60:	11003fcc 	andi	r4,r2,255
 3201b64:	2100201c 	xori	r4,r4,128
 3201b68:	213fe004 	addi	r4,r4,-128
 3201b6c:	0080c974 	movhi	r2,805
 3201b70:	108a6304 	addi	r2,r2,10636
 3201b74:	10800017 	ldw	r2,0(r2)
 3201b78:	11400217 	ldw	r5,8(r2)
 3201b7c:	3206e580 	call	3206e58 <putc>
            
            /* Handle backspaces.  How civilized. */
            if ((serial_number[i] == 0x08) && (i >= 0)) 
 3201b80:	e0fffb17 	ldw	r3,-20(fp)
 3201b84:	e0bffd04 	addi	r2,fp,-12
 3201b88:	10c5883a 	add	r2,r2,r3
 3201b8c:	10800003 	ldbu	r2,0(r2)
 3201b90:	10803fcc 	andi	r2,r2,255
 3201b94:	1080201c 	xori	r2,r2,128
 3201b98:	10bfe004 	addi	r2,r2,-128
 3201b9c:	10800218 	cmpnei	r2,r2,8
 3201ba0:	1000061e 	bne	r2,zero,3201bbc <get_serial_number+0xe0>
 3201ba4:	e0bffb17 	ldw	r2,-20(fp)
 3201ba8:	1004803a 	cmplt	r2,r2,zero
 3201bac:	1000031e 	bne	r2,zero,3201bbc <get_serial_number+0xe0>
            {
                i--;
 3201bb0:	e0bffb17 	ldw	r2,-20(fp)
 3201bb4:	10bfffc4 	addi	r2,r2,-1
 3201bb8:	e0bffb15 	stw	r2,-20(fp)
    {
        printf("Please enter your 9-digit serial number. This is printed on a \n");
        printf("label under your Nios dev. board. The first 3 digits of the \n");
        printf("label are ASJ and the serial number follows this.\n -->");
        
        for(i=0; i<9; i++)
 3201bbc:	e0bffb17 	ldw	r2,-20(fp)
 3201bc0:	10800044 	addi	r2,r2,1
 3201bc4:	e0bffb15 	stw	r2,-20(fp)
 3201bc8:	e0bffb17 	ldw	r2,-20(fp)
 3201bcc:	10800250 	cmplti	r2,r2,9
 3201bd0:	103fd51e 	bne	r2,zero,3201b28 <get_serial_number+0x4c>
            if ((serial_number[i] == 0x08) && (i >= 0)) 
            {
                i--;
            }
        }
        printf("\n");
 3201bd4:	01000284 	movi	r4,10
 3201bd8:	32070440 	call	3207044 <putchar>
                
        for(i=0; i<9; i++)
 3201bdc:	e03ffb15 	stw	zero,-20(fp)
 3201be0:	00002806 	br	3201c84 <get_serial_number+0x1a8>
        {
            if (isdigit(serial_number[i]))
 3201be4:	e0fffb17 	ldw	r3,-20(fp)
 3201be8:	e0bffd04 	addi	r2,fp,-12
 3201bec:	10c5883a 	add	r2,r2,r3
 3201bf0:	10800003 	ldbu	r2,0(r2)
 3201bf4:	10803fcc 	andi	r2,r2,255
 3201bf8:	1080201c 	xori	r2,r2,128
 3201bfc:	10bfe004 	addi	r2,r2,-128
 3201c00:	1007883a 	mov	r3,r2
 3201c04:	0080c974 	movhi	r2,805
 3201c08:	108a6204 	addi	r2,r2,10632
 3201c0c:	10800017 	ldw	r2,0(r2)
 3201c10:	1885883a 	add	r2,r3,r2
 3201c14:	10800003 	ldbu	r2,0(r2)
 3201c18:	10803fcc 	andi	r2,r2,255
 3201c1c:	1080010c 	andi	r2,r2,4
 3201c20:	1005003a 	cmpeq	r2,r2,zero
 3201c24:	1000121e 	bne	r2,zero,3201c70 <get_serial_number+0x194>
            {
                ser_num *= 10;
 3201c28:	e0bffc17 	ldw	r2,-16(fp)
 3201c2c:	108002a4 	muli	r2,r2,10
 3201c30:	e0bffc15 	stw	r2,-16(fp)
                ser_num += serial_number[i] - '0';
 3201c34:	e0fffb17 	ldw	r3,-20(fp)
 3201c38:	e0bffd04 	addi	r2,fp,-12
 3201c3c:	10c5883a 	add	r2,r2,r3
 3201c40:	10800003 	ldbu	r2,0(r2)
 3201c44:	10c03fcc 	andi	r3,r2,255
 3201c48:	18c0201c 	xori	r3,r3,128
 3201c4c:	18ffe004 	addi	r3,r3,-128
 3201c50:	e0bffc17 	ldw	r2,-16(fp)
 3201c54:	1885883a 	add	r2,r3,r2
 3201c58:	10bff404 	addi	r2,r2,-48
 3201c5c:	e0bffc15 	stw	r2,-16(fp)
                i--;
            }
        }
        printf("\n");
                
        for(i=0; i<9; i++)
 3201c60:	e0bffb17 	ldw	r2,-20(fp)
 3201c64:	10800044 	addi	r2,r2,1
 3201c68:	e0bffb15 	stw	r2,-20(fp)
 3201c6c:	00000506 	br	3201c84 <get_serial_number+0x1a8>
                ser_num *= 10;
                ser_num += serial_number[i] - '0';
            }
            else
            {
                ser_num = 0;
 3201c70:	e03ffc15 	stw	zero,-16(fp)
                printf("Serial number only contains decimal digits and is non-zero\n");
 3201c74:	0100c974 	movhi	r4,805
 3201c78:	21344504 	addi	r4,r4,-12012
 3201c7c:	32071080 	call	3207108 <puts>
                break;
 3201c80:	00000306 	br	3201c90 <get_serial_number+0x1b4>
                i--;
            }
        }
        printf("\n");
                
        for(i=0; i<9; i++)
 3201c84:	e0bffb17 	ldw	r2,-20(fp)
 3201c88:	10800250 	cmplti	r2,r2,9
 3201c8c:	103fd51e 	bne	r2,zero,3201be4 <get_serial_number+0x108>
{
    alt_u32 ser_num = 0;
    char serial_number[9];
    int i = 0;
    
    while(!ser_num)
 3201c90:	e0bffc17 	ldw	r2,-16(fp)
 3201c94:	1005003a 	cmpeq	r2,r2,zero
 3201c98:	103f981e 	bne	r2,zero,3201afc <get_serial_number+0x20>
                break;
            }
        }
    }
    
    return ser_num;
 3201c9c:	e0bffc17 	ldw	r2,-16(fp)
}
 3201ca0:	e037883a 	mov	sp,fp
 3201ca4:	dfc00217 	ldw	ra,8(sp)
 3201ca8:	df000117 	ldw	fp,4(sp)
 3201cac:	dc000017 	ldw	r16,0(sp)
 3201cb0:	dec00304 	addi	sp,sp,12
 3201cb4:	f800283a 	ret

03201cb8 <generate_and_store_mac_addr>:
 * sections. These fail-safe static settings are compatible with previous
 * Nios Ethernet designs, and allow the "factory-safe" design to behave 
 * as expected if the last flash sector is erased.
 */
error_t generate_and_store_mac_addr()
{
 3201cb8:	deffef04 	addi	sp,sp,-68
 3201cbc:	dfc01015 	stw	ra,64(sp)
 3201cc0:	df000f15 	stw	fp,60(sp)
 3201cc4:	df000f04 	addi	fp,sp,60
    error_t error = -1;
 3201cc8:	00bfffc4 	movi	r2,-1
 3201ccc:	e0bff715 	stw	r2,-36(fp)
    alt_u32 ser_num = 0;
 3201cd0:	e03ff615 	stw	zero,-40(fp)
    char flash_content[32];
    alt_flash_fd* flash_handle;
    
    printf("Can't read the MAC address from your board (this probably means\n");
 3201cd4:	0100c974 	movhi	r4,805
 3201cd8:	21345404 	addi	r4,r4,-11952
 3201cdc:	32071080 	call	3207108 <puts>
    printf("that your flash was erased). We will assign you a MAC address and\n");
 3201ce0:	0100c974 	movhi	r4,805
 3201ce4:	21346404 	addi	r4,r4,-11888
 3201ce8:	32071080 	call	3207108 <puts>
    printf("static network settings\n\n");
 3201cec:	0100c974 	movhi	r4,805
 3201cf0:	21347504 	addi	r4,r4,-11820
 3201cf4:	32071080 	call	3207108 <puts>
    
    ser_num = get_serial_number();
 3201cf8:	3201adc0 	call	3201adc <get_serial_number>
 3201cfc:	e0bff615 	stw	r2,-40(fp)
  
    if (ser_num)
 3201d00:	e0bff617 	ldw	r2,-40(fp)
 3201d04:	1005003a 	cmpeq	r2,r2,zero
 3201d08:	1000581e 	bne	r2,zero,3201e6c <generate_and_store_mac_addr+0x1b4>
    {
        /* This says the image is safe */
        flash_content[0] = 0xfe;
 3201d0c:	00bfff84 	movi	r2,-2
 3201d10:	e0bff805 	stb	r2,-32(fp)
        flash_content[1] = 0x5a;
 3201d14:	00801684 	movi	r2,90
 3201d18:	e0bff845 	stb	r2,-31(fp)
        flash_content[2] = 0x0;
 3201d1c:	e03ff885 	stb	zero,-30(fp)
        flash_content[3] = 0x0;
 3201d20:	e03ff8c5 	stb	zero,-29(fp)
        
        /* This is the Altera Vendor ID */
        flash_content[4] = 0x0;
 3201d24:	e03ff905 	stb	zero,-28(fp)
        flash_content[5] = 0x7;
 3201d28:	008001c4 	movi	r2,7
 3201d2c:	e0bff945 	stb	r2,-27(fp)
        flash_content[6] = 0xed;
 3201d30:	00bffb44 	movi	r2,-19
 3201d34:	e0bff985 	stb	r2,-26(fp)
        
        /* Reserverd Board identifier for erase boards */
        flash_content[7] = 0xFF;
 3201d38:	00bfffc4 	movi	r2,-1
 3201d3c:	e0bff9c5 	stb	r2,-25(fp)
        flash_content[8] = (ser_num & 0xff00) >> 8;
 3201d40:	e0bff617 	ldw	r2,-40(fp)
 3201d44:	10bfc00c 	andi	r2,r2,65280
 3201d48:	1004d23a 	srli	r2,r2,8
 3201d4c:	e0bffa05 	stb	r2,-24(fp)
        flash_content[9] = ser_num & 0xff;
 3201d50:	e0bff617 	ldw	r2,-40(fp)
 3201d54:	e0bffa45 	stb	r2,-23(fp)
        
        /* Then comes a 16-bit "flags" field */
        flash_content[10] = 0xFF;
 3201d58:	00bfffc4 	movi	r2,-1
 3201d5c:	e0bffa85 	stb	r2,-22(fp)
        flash_content[11] = 0xFF;
 3201d60:	00bfffc4 	movi	r2,-1
 3201d64:	e0bffac5 	stb	r2,-21(fp)
        
        /* Then comes the static IP address */
        flash_content[12] = IPADDR0;
 3201d68:	00bfeb04 	movi	r2,-84
 3201d6c:	e0bffb05 	stb	r2,-20(fp)
        flash_content[13] = IPADDR1;
 3201d70:	008004c4 	movi	r2,19
 3201d74:	e0bffb45 	stb	r2,-19(fp)
        flash_content[14] = IPADDR2;
 3201d78:	00800144 	movi	r2,5
 3201d7c:	e0bffb85 	stb	r2,-18(fp)
        flash_content[15] = IPADDR3;
 3201d80:	00bff544 	movi	r2,-43
 3201d84:	e0bffbc5 	stb	r2,-17(fp)
        
        /* Then comes the static nameserver address */
        flash_content[16] = 0xFF;
 3201d88:	00bfffc4 	movi	r2,-1
 3201d8c:	e0bffc05 	stb	r2,-16(fp)
        flash_content[17] = 0xFF;
 3201d90:	00bfffc4 	movi	r2,-1
 3201d94:	e0bffc45 	stb	r2,-15(fp)
        flash_content[18] = 0xFF;
 3201d98:	00bfffc4 	movi	r2,-1
 3201d9c:	e0bffc85 	stb	r2,-14(fp)
        flash_content[19] = 0xFF;
 3201da0:	00bfffc4 	movi	r2,-1
 3201da4:	e0bffcc5 	stb	r2,-13(fp)
        
        /* Then comes the static subnet mask */
        flash_content[20] = MSKADDR0;
 3201da8:	00bfffc4 	movi	r2,-1
 3201dac:	e0bffd05 	stb	r2,-12(fp)
        flash_content[21] = MSKADDR1;
 3201db0:	00bfffc4 	movi	r2,-1
 3201db4:	e0bffd45 	stb	r2,-11(fp)
        flash_content[22] = MSKADDR2;
 3201db8:	00bfffc4 	movi	r2,-1
 3201dbc:	e0bffd85 	stb	r2,-10(fp)
        flash_content[23] = MSKADDR3;
 3201dc0:	e03ffdc5 	stb	zero,-9(fp)
        
        /* Then comes the static gateway address */
        flash_content[24] = GWADDR0;
 3201dc4:	00bfeb04 	movi	r2,-84
 3201dc8:	e0bffe05 	stb	r2,-8(fp)
        flash_content[25] = GWADDR1;
 3201dcc:	008004c4 	movi	r2,19
 3201dd0:	e0bffe45 	stb	r2,-7(fp)
        flash_content[26] = GWADDR2;
 3201dd4:	00800144 	movi	r2,5
 3201dd8:	e0bffe85 	stb	r2,-6(fp)
        flash_content[27] = GWADDR3;
 3201ddc:	00800044 	movi	r2,1
 3201de0:	e0bffec5 	stb	r2,-5(fp)
        
        /* And finally whether to use DHCP - set all bits to be safe */
        flash_content[28] = 0xFF;
 3201de4:	00bfffc4 	movi	r2,-1
 3201de8:	e0bfff05 	stb	r2,-4(fp)
        flash_content[29] = 0xFF;
 3201dec:	00bfffc4 	movi	r2,-1
 3201df0:	e0bfff45 	stb	r2,-3(fp)
        flash_content[30] = 0xFF;
 3201df4:	00bfffc4 	movi	r2,-1
 3201df8:	e0bfff85 	stb	r2,-2(fp)
        flash_content[31] = 0xFF;
 3201dfc:	00bfffc4 	movi	r2,-1
 3201e00:	e0bfffc5 	stb	r2,-1(fp)
        
        /* Write the MAC address to flash */
        flash_handle = alt_flash_open_dev(EXT_FLASH_NAME);
 3201e04:	0100c974 	movhi	r4,805
 3201e08:	21347c04 	addi	r4,r4,-11792
 3201e0c:	32148600 	call	3214860 <alt_flash_open_dev>
 3201e10:	e0bff515 	stw	r2,-44(fp)
        if (flash_handle)
 3201e14:	e0bff517 	ldw	r2,-44(fp)
 3201e18:	1005003a 	cmpeq	r2,r2,zero
 3201e1c:	1000131e 	bne	r2,zero,3201e6c <generate_and_store_mac_addr+0x1b4>
        {
            alt_write_flash(flash_handle,
 3201e20:	d0a89317 	ldw	r2,-23988(gp)
 3201e24:	1007883a 	mov	r3,r2
 3201e28:	e0bff517 	ldw	r2,-44(fp)
 3201e2c:	e0bff115 	stw	r2,-60(fp)
 3201e30:	e0fff215 	stw	r3,-56(fp)
 3201e34:	e0bff804 	addi	r2,fp,-32
 3201e38:	e0bff315 	stw	r2,-52(fp)
 3201e3c:	00800804 	movi	r2,32
 3201e40:	e0bff415 	stw	r2,-48(fp)
                                                           alt_flash_fd* fd, 
                                                           int offset, 
                                                           const void* src_addr, 
                                                           int length )
{
  return fd->write( fd, offset, src_addr, length );
 3201e44:	e0bff117 	ldw	r2,-60(fp)
 3201e48:	10800517 	ldw	r2,20(r2)
 3201e4c:	e13ff117 	ldw	r4,-60(fp)
 3201e50:	e17ff217 	ldw	r5,-56(fp)
 3201e54:	e1bff317 	ldw	r6,-52(fp)
 3201e58:	e1fff417 	ldw	r7,-48(fp)
 3201e5c:	103ee83a 	callr	r2
                            last_flash_sector_offset,
                            flash_content,
                            32);
            alt_flash_close_dev(flash_handle);
 3201e60:	e13ff517 	ldw	r4,-44(fp)
 3201e64:	32148dc0 	call	32148dc <alt_flash_close_dev>
            error = 0;
 3201e68:	e03ff715 	stw	zero,-36(fp)
        }
    }

    return error;    
 3201e6c:	e0bff717 	ldw	r2,-36(fp)
}
 3201e70:	e037883a 	mov	sp,fp
 3201e74:	dfc00117 	ldw	ra,4(sp)
 3201e78:	df000017 	ldw	fp,0(sp)
 3201e7c:	dec00204 	addi	sp,sp,8
 3201e80:	f800283a 	ret

03201e84 <generate_mac_addr>:
 * Development Board serial number is 040800017, the corresponding ethernet 
 * number generated will be 00:07:ED:FF:8F:11.
 * 
 */
error_t generate_mac_addr(unsigned char mac_addr[6])
{
 3201e84:	defff804 	addi	sp,sp,-32
 3201e88:	dfc00715 	stw	ra,28(sp)
 3201e8c:	df000615 	stw	fp,24(sp)
 3201e90:	df000604 	addi	fp,sp,24
 3201e94:	e13fff15 	stw	r4,-4(fp)
    error_t error = -1;
 3201e98:	00bfffc4 	movi	r2,-1
 3201e9c:	e0bffe15 	stw	r2,-8(fp)
    alt_u32 ser_num = 0;
 3201ea0:	e03ffd15 	stw	zero,-12(fp)
    
    printf("\nCan't read the MAC address from your board. We will assign you\n");
 3201ea4:	0100c974 	movhi	r4,805
 3201ea8:	21348004 	addi	r4,r4,-11776
 3201eac:	32071080 	call	3207108 <puts>
    printf("a MAC address.\n\n");
 3201eb0:	0100c974 	movhi	r4,805
 3201eb4:	21349004 	addi	r4,r4,-11712
 3201eb8:	32071080 	call	3207108 <puts>
    
    ser_num = get_serial_number();
 3201ebc:	3201adc0 	call	3201adc <get_serial_number>
 3201ec0:	e0bffd15 	stw	r2,-12(fp)
  
    if (ser_num)
 3201ec4:	e0bffd17 	ldw	r2,-12(fp)
 3201ec8:	1005003a 	cmpeq	r2,r2,zero
 3201ecc:	1000361e 	bne	r2,zero,3201fa8 <generate_mac_addr+0x124>
    {
        /* This is the Altera Vendor ID */
        mac_addr[0] = 0x0;
 3201ed0:	e0bfff17 	ldw	r2,-4(fp)
 3201ed4:	10000005 	stb	zero,0(r2)
        mac_addr[1] = 0x7;
 3201ed8:	e0bfff17 	ldw	r2,-4(fp)
 3201edc:	10c00044 	addi	r3,r2,1
 3201ee0:	008001c4 	movi	r2,7
 3201ee4:	18800005 	stb	r2,0(r3)
        mac_addr[2] = 0xed;
 3201ee8:	e0bfff17 	ldw	r2,-4(fp)
 3201eec:	10c00084 	addi	r3,r2,2
 3201ef0:	00bffb44 	movi	r2,-19
 3201ef4:	18800005 	stb	r2,0(r3)
        
        /* Reserverd Board identifier */
        mac_addr[3] = 0xFF;
 3201ef8:	e0bfff17 	ldw	r2,-4(fp)
 3201efc:	10c000c4 	addi	r3,r2,3
 3201f00:	00bfffc4 	movi	r2,-1
 3201f04:	18800005 	stb	r2,0(r3)
        mac_addr[4] = (ser_num & 0xff00) >> 8;
 3201f08:	e0bfff17 	ldw	r2,-4(fp)
 3201f0c:	10c00104 	addi	r3,r2,4
 3201f10:	e0bffd17 	ldw	r2,-12(fp)
 3201f14:	10bfc00c 	andi	r2,r2,65280
 3201f18:	1004d23a 	srli	r2,r2,8
 3201f1c:	18800005 	stb	r2,0(r3)
        mac_addr[5] = ser_num & 0xff;
 3201f20:	e0bfff17 	ldw	r2,-4(fp)
 3201f24:	10c00144 	addi	r3,r2,5
 3201f28:	e0bffd17 	ldw	r2,-12(fp)
 3201f2c:	18800005 	stb	r2,0(r3)
        
        printf("Your Ethernet MAC address is %02x:%02x:%02x:%02x:%02x:%02x\n", 
 3201f30:	e0bfff17 	ldw	r2,-4(fp)
 3201f34:	10800003 	ldbu	r2,0(r2)
 3201f38:	11403fcc 	andi	r5,r2,255
 3201f3c:	e0bfff17 	ldw	r2,-4(fp)
 3201f40:	10800044 	addi	r2,r2,1
 3201f44:	10800003 	ldbu	r2,0(r2)
 3201f48:	11803fcc 	andi	r6,r2,255
 3201f4c:	e0bfff17 	ldw	r2,-4(fp)
 3201f50:	10800084 	addi	r2,r2,2
 3201f54:	10800003 	ldbu	r2,0(r2)
 3201f58:	11c03fcc 	andi	r7,r2,255
 3201f5c:	e0bfff17 	ldw	r2,-4(fp)
 3201f60:	108000c4 	addi	r2,r2,3
 3201f64:	10800003 	ldbu	r2,0(r2)
 3201f68:	10c03fcc 	andi	r3,r2,255
 3201f6c:	e0bfff17 	ldw	r2,-4(fp)
 3201f70:	10800104 	addi	r2,r2,4
 3201f74:	10800003 	ldbu	r2,0(r2)
 3201f78:	11003fcc 	andi	r4,r2,255
 3201f7c:	e0bfff17 	ldw	r2,-4(fp)
 3201f80:	10800144 	addi	r2,r2,5
 3201f84:	10800003 	ldbu	r2,0(r2)
 3201f88:	10803fcc 	andi	r2,r2,255
 3201f8c:	d8c00015 	stw	r3,0(sp)
 3201f90:	d9000115 	stw	r4,4(sp)
 3201f94:	d8800215 	stw	r2,8(sp)
 3201f98:	0100c974 	movhi	r4,805
 3201f9c:	21340404 	addi	r4,r4,-12272
 3201fa0:	3206de00 	call	3206de0 <printf>
            mac_addr[2],
            mac_addr[3],
            mac_addr[4],
            mac_addr[5]);
        
        error = 0;
 3201fa4:	e03ffe15 	stw	zero,-8(fp)
    }
  
    return error;    
 3201fa8:	e0bffe17 	ldw	r2,-8(fp)
}
 3201fac:	e037883a 	mov	sp,fp
 3201fb0:	dfc00117 	ldw	ra,4(sp)
 3201fb4:	df000017 	ldw	fp,0(sp)
 3201fb8:	dec00204 	addi	sp,sp,8
 3201fbc:	f800283a 	ret

03201fc0 <get_board_mac_addr>:
*
* Read the MAC address in a board specific way
*
*/
error_t get_board_mac_addr(unsigned char mac_addr[6])
{
 3201fc0:	defff804 	addi	sp,sp,-32
 3201fc4:	dfc00715 	stw	ra,28(sp)
 3201fc8:	df000615 	stw	fp,24(sp)
 3201fcc:	df000604 	addi	fp,sp,24
 3201fd0:	e13fff15 	stw	r4,-4(fp)

	 printf("Your Ethernet MAC address before reading flash is %02x:%02x:%02x:%02x:%02x:%02x\n",
 3201fd4:	e0bfff17 	ldw	r2,-4(fp)
 3201fd8:	10800003 	ldbu	r2,0(r2)
 3201fdc:	11403fcc 	andi	r5,r2,255
 3201fe0:	e0bfff17 	ldw	r2,-4(fp)
 3201fe4:	10800044 	addi	r2,r2,1
 3201fe8:	10800003 	ldbu	r2,0(r2)
 3201fec:	11803fcc 	andi	r6,r2,255
 3201ff0:	e0bfff17 	ldw	r2,-4(fp)
 3201ff4:	10800084 	addi	r2,r2,2
 3201ff8:	10800003 	ldbu	r2,0(r2)
 3201ffc:	11c03fcc 	andi	r7,r2,255
 3202000:	e0bfff17 	ldw	r2,-4(fp)
 3202004:	108000c4 	addi	r2,r2,3
 3202008:	10800003 	ldbu	r2,0(r2)
 320200c:	10c03fcc 	andi	r3,r2,255
 3202010:	e0bfff17 	ldw	r2,-4(fp)
 3202014:	10800104 	addi	r2,r2,4
 3202018:	10800003 	ldbu	r2,0(r2)
 320201c:	11003fcc 	andi	r4,r2,255
 3202020:	e0bfff17 	ldw	r2,-4(fp)
 3202024:	10800144 	addi	r2,r2,5
 3202028:	10800003 	ldbu	r2,0(r2)
 320202c:	10803fcc 	andi	r2,r2,255
 3202030:	d8c00015 	stw	r3,0(sp)
 3202034:	d9000115 	stw	r4,4(sp)
 3202038:	d8800215 	stw	r2,8(sp)
 320203c:	0100c974 	movhi	r4,805
 3202040:	21349404 	addi	r4,r4,-11696
 3202044:	3206de00 	call	3206de0 <printf>
		            mac_addr[2],
		            mac_addr[3],
		            mac_addr[4],
		            mac_addr[5]);

	error_t error = 0;
 3202048:	e03ffe15 	stw	zero,-8(fp)
    alt_u32 signature;
    
    /* Get the flash sector with the MAC address. */
    error = FindLastFlashSectorOffset(&last_flash_sector_offset);
 320204c:	d1289304 	addi	r4,gp,-23988
 3202050:	320223c0 	call	320223c <FindLastFlashSectorOffset>
 3202054:	e0bffe15 	stw	r2,-8(fp)
    if (!error)
 3202058:	e0bffe17 	ldw	r2,-8(fp)
 320205c:	1004c03a 	cmpne	r2,r2,zero
 3202060:	1000041e 	bne	r2,zero,3202074 <get_board_mac_addr+0xb4>
        last_flash_sector = EXT_FLASH_BASE + last_flash_sector_offset;
 3202064:	d0a89317 	ldw	r2,-23988(gp)
 3202068:	00c0a034 	movhi	r3,640
 320206c:	10c5883a 	add	r2,r2,r3
 3202070:	d0a89415 	stw	r2,-23984(gp)
     * valid network settings are present, indicated by a signature of 0x00005afe at 
     * the first address of the last flash sector.  This hex value is chosen as the 
     * signature since it looks like the english word "SAFE", meaning that it is 
     * safe to use these network address values.  
    */
    if (!error)
 3202074:	e0bffe17 	ldw	r2,-8(fp)
 3202078:	1004c03a 	cmpne	r2,r2,zero
 320207c:	1000081e 	bne	r2,zero,32020a0 <get_board_mac_addr+0xe0>
    {
        signature = IORD_32DIRECT(last_flash_sector, 0);
 3202080:	d0a89417 	ldw	r2,-23984(gp)
 3202084:	10800037 	ldwio	r2,0(r2)
 3202088:	e0bffd15 	stw	r2,-12(fp)
        if (signature != 0x00005afe)
 320208c:	e0bffd17 	ldw	r2,-12(fp)
 3202090:	1096bfa0 	cmpeqi	r2,r2,23294
 3202094:	1000021e 	bne	r2,zero,32020a0 <get_board_mac_addr+0xe0>
        {
          error = generate_and_store_mac_addr();
 3202098:	3201cb80 	call	3201cb8 <generate_and_store_mac_addr>
 320209c:	e0bffe15 	stw	r2,-8(fp)
        }
    }
  
    printf("Your Ethernet MAC address after reading flash is %02x:%02x:%02x:%02x:%02x:%02x\n",
 32020a0:	e0bfff17 	ldw	r2,-4(fp)
 32020a4:	10800003 	ldbu	r2,0(r2)
 32020a8:	11403fcc 	andi	r5,r2,255
 32020ac:	e0bfff17 	ldw	r2,-4(fp)
 32020b0:	10800044 	addi	r2,r2,1
 32020b4:	10800003 	ldbu	r2,0(r2)
 32020b8:	11803fcc 	andi	r6,r2,255
 32020bc:	e0bfff17 	ldw	r2,-4(fp)
 32020c0:	10800084 	addi	r2,r2,2
 32020c4:	10800003 	ldbu	r2,0(r2)
 32020c8:	11c03fcc 	andi	r7,r2,255
 32020cc:	e0bfff17 	ldw	r2,-4(fp)
 32020d0:	108000c4 	addi	r2,r2,3
 32020d4:	10800003 	ldbu	r2,0(r2)
 32020d8:	10c03fcc 	andi	r3,r2,255
 32020dc:	e0bfff17 	ldw	r2,-4(fp)
 32020e0:	10800104 	addi	r2,r2,4
 32020e4:	10800003 	ldbu	r2,0(r2)
 32020e8:	11003fcc 	andi	r4,r2,255
 32020ec:	e0bfff17 	ldw	r2,-4(fp)
 32020f0:	10800144 	addi	r2,r2,5
 32020f4:	10800003 	ldbu	r2,0(r2)
 32020f8:	10803fcc 	andi	r2,r2,255
 32020fc:	d8c00015 	stw	r3,0(sp)
 3202100:	d9000115 	stw	r4,4(sp)
 3202104:	d8800215 	stw	r2,8(sp)
 3202108:	0100c974 	movhi	r4,805
 320210c:	2134a904 	addi	r4,r4,-11612
 3202110:	3206de00 	call	3206de0 <printf>
    	            mac_addr[2],
    	            mac_addr[3],
    	            mac_addr[4],
    	            mac_addr[5]);

    if (!error)
 3202114:	e0bffe17 	ldw	r2,-8(fp)
 3202118:	1004c03a 	cmpne	r2,r2,zero
 320211c:	1000411e 	bne	r2,zero,3202224 <get_board_mac_addr+0x264>
    {
        mac_addr[0] = IORD_8DIRECT(last_flash_sector, 4);
 3202120:	d0a89417 	ldw	r2,-23984(gp)
 3202124:	10800104 	addi	r2,r2,4
 3202128:	10800023 	ldbuio	r2,0(r2)
 320212c:	1007883a 	mov	r3,r2
 3202130:	e0bfff17 	ldw	r2,-4(fp)
 3202134:	10c00005 	stb	r3,0(r2)
        mac_addr[1] = IORD_8DIRECT(last_flash_sector, 5);
 3202138:	e0bfff17 	ldw	r2,-4(fp)
 320213c:	10c00044 	addi	r3,r2,1
 3202140:	d0a89417 	ldw	r2,-23984(gp)
 3202144:	10800144 	addi	r2,r2,5
 3202148:	10800023 	ldbuio	r2,0(r2)
 320214c:	18800005 	stb	r2,0(r3)
        mac_addr[2] = IORD_8DIRECT(last_flash_sector, 6);
 3202150:	e0bfff17 	ldw	r2,-4(fp)
 3202154:	10c00084 	addi	r3,r2,2
 3202158:	d0a89417 	ldw	r2,-23984(gp)
 320215c:	10800184 	addi	r2,r2,6
 3202160:	10800023 	ldbuio	r2,0(r2)
 3202164:	18800005 	stb	r2,0(r3)
        mac_addr[3] = IORD_8DIRECT(last_flash_sector, 7);
 3202168:	e0bfff17 	ldw	r2,-4(fp)
 320216c:	10c000c4 	addi	r3,r2,3
 3202170:	d0a89417 	ldw	r2,-23984(gp)
 3202174:	108001c4 	addi	r2,r2,7
 3202178:	10800023 	ldbuio	r2,0(r2)
 320217c:	18800005 	stb	r2,0(r3)
        mac_addr[4] = IORD_8DIRECT(last_flash_sector, 8);
 3202180:	e0bfff17 	ldw	r2,-4(fp)
 3202184:	10c00104 	addi	r3,r2,4
 3202188:	d0a89417 	ldw	r2,-23984(gp)
 320218c:	10800204 	addi	r2,r2,8
 3202190:	10800023 	ldbuio	r2,0(r2)
 3202194:	18800005 	stb	r2,0(r3)
        mac_addr[5] = IORD_8DIRECT(last_flash_sector, 9);
 3202198:	e0bfff17 	ldw	r2,-4(fp)
 320219c:	10c00144 	addi	r3,r2,5
 32021a0:	d0a89417 	ldw	r2,-23984(gp)
 32021a4:	10800244 	addi	r2,r2,9
 32021a8:	10800023 	ldbuio	r2,0(r2)
 32021ac:	18800005 	stb	r2,0(r3)
		
        printf("Your Ethernet MAC address is %02x:%02x:%02x:%02x:%02x:%02x\n", 
 32021b0:	e0bfff17 	ldw	r2,-4(fp)
 32021b4:	10800003 	ldbu	r2,0(r2)
 32021b8:	11403fcc 	andi	r5,r2,255
 32021bc:	e0bfff17 	ldw	r2,-4(fp)
 32021c0:	10800044 	addi	r2,r2,1
 32021c4:	10800003 	ldbu	r2,0(r2)
 32021c8:	11803fcc 	andi	r6,r2,255
 32021cc:	e0bfff17 	ldw	r2,-4(fp)
 32021d0:	10800084 	addi	r2,r2,2
 32021d4:	10800003 	ldbu	r2,0(r2)
 32021d8:	11c03fcc 	andi	r7,r2,255
 32021dc:	e0bfff17 	ldw	r2,-4(fp)
 32021e0:	108000c4 	addi	r2,r2,3
 32021e4:	10800003 	ldbu	r2,0(r2)
 32021e8:	10c03fcc 	andi	r3,r2,255
 32021ec:	e0bfff17 	ldw	r2,-4(fp)
 32021f0:	10800104 	addi	r2,r2,4
 32021f4:	10800003 	ldbu	r2,0(r2)
 32021f8:	11003fcc 	andi	r4,r2,255
 32021fc:	e0bfff17 	ldw	r2,-4(fp)
 3202200:	10800144 	addi	r2,r2,5
 3202204:	10800003 	ldbu	r2,0(r2)
 3202208:	10803fcc 	andi	r2,r2,255
 320220c:	d8c00015 	stw	r3,0(sp)
 3202210:	d9000115 	stw	r4,4(sp)
 3202214:	d8800215 	stw	r2,8(sp)
 3202218:	0100c974 	movhi	r4,805
 320221c:	21340404 	addi	r4,r4,-12272
 3202220:	3206de00 	call	3206de0 <printf>
            mac_addr[4],
            mac_addr[5]);
    
    }
    
    return error;
 3202224:	e0bffe17 	ldw	r2,-8(fp)
}
 3202228:	e037883a 	mov	sp,fp
 320222c:	dfc00117 	ldw	ra,4(sp)
 3202230:	df000017 	ldw	fp,0(sp)
 3202234:	dec00204 	addi	sp,sp,8
 3202238:	f800283a 	ret

0320223c <FindLastFlashSectorOffset>:
 * in pLastFlashSectorOffset.
 */

int FindLastFlashSectorOffset(
    alt_u32                     *pLastFlashSectorOffset)
{
 320223c:	defff304 	addi	sp,sp,-52
 3202240:	dfc00c15 	stw	ra,48(sp)
 3202244:	df000b15 	stw	fp,44(sp)
 3202248:	df000b04 	addi	fp,sp,44
 320224c:	e13fff15 	stw	r4,-4(fp)
    flash_region                *regions;
    int                         numRegions;
    flash_region                *pLastRegion;
    int                         lastFlashSectorOffset;
    int                         n;
    int                         error = 0;
 3202250:	e03ff815 	stw	zero,-32(fp)

    /* Open the flash device. */
    fd = alt_flash_open_dev(EXT_FLASH_NAME);
 3202254:	0100c974 	movhi	r4,805
 3202258:	21347c04 	addi	r4,r4,-11792
 320225c:	32148600 	call	3214860 <alt_flash_open_dev>
 3202260:	e0bffc15 	stw	r2,-16(fp)
    if (fd <= 0)
 3202264:	e0bffc17 	ldw	r2,-16(fp)
 3202268:	1004c03a 	cmpne	r2,r2,zero
 320226c:	1000021e 	bne	r2,zero,3202278 <FindLastFlashSectorOffset+0x3c>
        error = -1;
 3202270:	00bfffc4 	movi	r2,-1
 3202274:	e0bff815 	stw	r2,-32(fp)

    /* Get the flash info. */
    if (!error)
 3202278:	e0bff817 	ldw	r2,-32(fp)
 320227c:	1004c03a 	cmpne	r2,r2,zero
 3202280:	10000d1e 	bne	r2,zero,32022b8 <FindLastFlashSectorOffset+0x7c>
 3202284:	e0bffc17 	ldw	r2,-16(fp)
 3202288:	e0bff515 	stw	r2,-44(fp)
 320228c:	e0bffd04 	addi	r2,fp,-12
 3202290:	e0bff615 	stw	r2,-40(fp)
 3202294:	e0bffe04 	addi	r2,fp,-8
 3202298:	e0bff715 	stw	r2,-36(fp)
 */
static __inline__ int __attribute__ ((always_inline)) alt_get_flash_info( 
                                      alt_flash_fd* fd, flash_region** info, 
                                      int* number_of_regions)
{
  return fd->get_info( fd, info, number_of_regions);
 320229c:	e0bff517 	ldw	r2,-44(fp)
 32022a0:	10800717 	ldw	r2,28(r2)
 32022a4:	e13ff517 	ldw	r4,-44(fp)
 32022a8:	e17ff617 	ldw	r5,-40(fp)
 32022ac:	e1bff717 	ldw	r6,-36(fp)
 32022b0:	103ee83a 	callr	r2
        error = alt_get_flash_info(fd, &regions, &numRegions);
 32022b4:	e0bff815 	stw	r2,-32(fp)

    /* Find the last flash sector. */
    if (!error)
 32022b8:	e0bff817 	ldw	r2,-32(fp)
 32022bc:	1004c03a 	cmpne	r2,r2,zero
 32022c0:	1000231e 	bne	r2,zero,3202350 <FindLastFlashSectorOffset+0x114>
    {
        pLastRegion = &(regions[0]);
 32022c4:	e0bffd17 	ldw	r2,-12(fp)
 32022c8:	e0bffb15 	stw	r2,-20(fp)
        for (n = 1; n < numRegions; n++)
 32022cc:	00800044 	movi	r2,1
 32022d0:	e0bff915 	stw	r2,-28(fp)
 32022d4:	00001206 	br	3202320 <FindLastFlashSectorOffset+0xe4>
        {
            if (regions[n].offset > pLastRegion->offset)
 32022d8:	e0bff917 	ldw	r2,-28(fp)
 32022dc:	1004913a 	slli	r2,r2,4
 32022e0:	1007883a 	mov	r3,r2
 32022e4:	e0bffd17 	ldw	r2,-12(fp)
 32022e8:	1885883a 	add	r2,r3,r2
 32022ec:	10c00017 	ldw	r3,0(r2)
 32022f0:	e0bffb17 	ldw	r2,-20(fp)
 32022f4:	10800017 	ldw	r2,0(r2)
 32022f8:	10c0060e 	bge	r2,r3,3202314 <FindLastFlashSectorOffset+0xd8>
                pLastRegion = &(regions[n]);
 32022fc:	e0bff917 	ldw	r2,-28(fp)
 3202300:	1004913a 	slli	r2,r2,4
 3202304:	1007883a 	mov	r3,r2
 3202308:	e0bffd17 	ldw	r2,-12(fp)
 320230c:	1885883a 	add	r2,r3,r2
 3202310:	e0bffb15 	stw	r2,-20(fp)

    /* Find the last flash sector. */
    if (!error)
    {
        pLastRegion = &(regions[0]);
        for (n = 1; n < numRegions; n++)
 3202314:	e0bff917 	ldw	r2,-28(fp)
 3202318:	10800044 	addi	r2,r2,1
 320231c:	e0bff915 	stw	r2,-28(fp)
 3202320:	e0fffe17 	ldw	r3,-8(fp)
 3202324:	e0bff917 	ldw	r2,-28(fp)
 3202328:	10ffeb16 	blt	r2,r3,32022d8 <FindLastFlashSectorOffset+0x9c>
        {
            if (regions[n].offset > pLastRegion->offset)
                pLastRegion = &(regions[n]);
        }
        lastFlashSectorOffset =   pLastRegion->offset
 320232c:	e0bffb17 	ldw	r2,-20(fp)
 3202330:	10c00017 	ldw	r3,0(r2)
 3202334:	e0bffb17 	ldw	r2,-20(fp)
 3202338:	10800117 	ldw	r2,4(r2)
 320233c:	1887883a 	add	r3,r3,r2
 3202340:	e0bffb17 	ldw	r2,-20(fp)
 3202344:	10800317 	ldw	r2,12(r2)
 3202348:	1885c83a 	sub	r2,r3,r2
 320234c:	e0bffa15 	stw	r2,-24(fp)
                                + pLastRegion->region_size
                                - pLastRegion->block_size;
    }

    /* Return results. */
    if (!error)
 3202350:	e0bff817 	ldw	r2,-32(fp)
 3202354:	1004c03a 	cmpne	r2,r2,zero
 3202358:	1000031e 	bne	r2,zero,3202368 <FindLastFlashSectorOffset+0x12c>
        *pLastFlashSectorOffset = lastFlashSectorOffset;
 320235c:	e0fffa17 	ldw	r3,-24(fp)
 3202360:	e0bfff17 	ldw	r2,-4(fp)
 3202364:	10c00015 	stw	r3,0(r2)

    return (error);
 3202368:	e0bff817 	ldw	r2,-32(fp)
}
 320236c:	e037883a 	mov	sp,fp
 3202370:	dfc00117 	ldw	ra,4(sp)
 3202374:	df000017 	ldw	fp,0(sp)
 3202378:	dec00204 	addi	sp,sp,8
 320237c:	f800283a 	ret

03202380 <sss_reset_connection>:
 * This routine will, when called, reset our SSSConn struct's members 
 * to a reliable initial state. Note that we set our socket (FD) number to
 * -1 to easily determine whether the connection is in a "reset, ready to go" 
 * state.
 */
void sss_reset_connection(SSSConn* conn) {
 3202380:	defffd04 	addi	sp,sp,-12
 3202384:	dfc00215 	stw	ra,8(sp)
 3202388:	df000115 	stw	fp,4(sp)
 320238c:	df000104 	addi	fp,sp,4
 3202390:	e13fff15 	stw	r4,-4(fp)
	memset(conn, 0, sizeof(SSSConn));
 3202394:	e0bfff17 	ldw	r2,-4(fp)
 3202398:	1009883a 	mov	r4,r2
 320239c:	01820504 	movi	r6,2068
 32023a0:	000b883a 	mov	r5,zero
 32023a4:	3206c500 	call	3206c50 <memset>

	conn->fd = -1;
 32023a8:	e0ffff17 	ldw	r3,-4(fp)
 32023ac:	00bfffc4 	movi	r2,-1
 32023b0:	18800115 	stw	r2,4(r3)
	conn->state = READY;
 32023b4:	e0bfff17 	ldw	r2,-4(fp)
 32023b8:	10000015 	stw	zero,0(r2)
	conn->rx_wr_pos = conn->rx_buffer;
 32023bc:	e0bfff17 	ldw	r2,-4(fp)
 32023c0:	10c00304 	addi	r3,r2,12
 32023c4:	e0bfff17 	ldw	r2,-4(fp)
 32023c8:	10c20415 	stw	r3,2064(r2)
	conn->rx_rd_pos = conn->rx_buffer;
 32023cc:	e0bfff17 	ldw	r2,-4(fp)
 32023d0:	10c00304 	addi	r3,r2,12
 32023d4:	e0bfff17 	ldw	r2,-4(fp)
 32023d8:	10c20315 	stw	r3,2060(r2)
}
 32023dc:	e037883a 	mov	sp,fp
 32023e0:	dfc00117 	ldw	ra,4(sp)
 32023e4:	df000017 	ldw	fp,0(sp)
 32023e8:	dec00204 	addi	sp,sp,8
 32023ec:	f800283a 	ret

032023f0 <sss_send_menu>:
/*
 * sss_send_menu()
 * 
 * This routine will transmit the menu out to the telnet client.
 */
void sss_send_menu(SSSConn* conn) {
 32023f0:	defdfc04 	addi	sp,sp,-2064
 32023f4:	dfc20315 	stw	ra,2060(sp)
 32023f8:	df020215 	stw	fp,2056(sp)
 32023fc:	df020204 	addi	fp,sp,2056
 3202400:	e13fff15 	stw	r4,-4(fp)
	alt_u8  tx_buf[SSS_TX_BUF_SIZE];
	alt_u8 *tx_wr_pos = tx_buf;
 3202404:	e0bdff04 	addi	r2,fp,-2052
 3202408:	e0bdfe15 	stw	r2,-2056(fp)

	tx_wr_pos += sprintf(tx_wr_pos, "===========================================\n");
 320240c:	e0bdfe17 	ldw	r2,-2056(fp)
 3202410:	00c0c974 	movhi	r3,805
 3202414:	18f4bd04 	addi	r3,r3,-11532
 3202418:	1009883a 	mov	r4,r2
 320241c:	180b883a 	mov	r5,r3
 3202420:	01800b44 	movi	r6,45
 3202424:	3206ad00 	call	3206ad0 <memcpy>
 3202428:	e0bdfe17 	ldw	r2,-2056(fp)
 320242c:	10800b04 	addi	r2,r2,44
 3202430:	e0bdfe15 	stw	r2,-2056(fp)
	tx_wr_pos += sprintf(tx_wr_pos, "Nios II Camera Commands Menu               \n");
 3202434:	e0bdfe17 	ldw	r2,-2056(fp)
 3202438:	00c0c974 	movhi	r3,805
 320243c:	18f4c904 	addi	r3,r3,-11484
 3202440:	1009883a 	mov	r4,r2
 3202444:	180b883a 	mov	r5,r3
 3202448:	01800b44 	movi	r6,45
 320244c:	3206ad00 	call	3206ad0 <memcpy>
 3202450:	e0bdfe17 	ldw	r2,-2056(fp)
 3202454:	10800b04 	addi	r2,r2,44
 3202458:	e0bdfe15 	stw	r2,-2056(fp)
	tx_wr_pos += sprintf(tx_wr_pos, "===========================================\n");
 320245c:	e0bdfe17 	ldw	r2,-2056(fp)
 3202460:	00c0c974 	movhi	r3,805
 3202464:	18f4bd04 	addi	r3,r3,-11532
 3202468:	1009883a 	mov	r4,r2
 320246c:	180b883a 	mov	r5,r3
 3202470:	01800b44 	movi	r6,45
 3202474:	3206ad00 	call	3206ad0 <memcpy>
 3202478:	e0bdfe17 	ldw	r2,-2056(fp)
 320247c:	10800b04 	addi	r2,r2,44
 3202480:	e0bdfe15 	stw	r2,-2056(fp)
	tx_wr_pos += sprintf(tx_wr_pos, "                                           \n");
 3202484:	e0bdfe17 	ldw	r2,-2056(fp)
 3202488:	00c0c974 	movhi	r3,805
 320248c:	18f4d504 	addi	r3,r3,-11436
 3202490:	1009883a 	mov	r4,r2
 3202494:	180b883a 	mov	r5,r3
 3202498:	01800b44 	movi	r6,45
 320249c:	3206ad00 	call	3206ad0 <memcpy>
 32024a0:	e0bdfe17 	ldw	r2,-2056(fp)
 32024a4:	10800b04 	addi	r2,r2,44
 32024a8:	e0bdfe15 	stw	r2,-2056(fp)
	tx_wr_pos += sprintf(tx_wr_pos, "r,xx: Read value of register (xx)          \n");
 32024ac:	e0bdfe17 	ldw	r2,-2056(fp)
 32024b0:	00c0c974 	movhi	r3,805
 32024b4:	18f4e104 	addi	r3,r3,-11388
 32024b8:	1009883a 	mov	r4,r2
 32024bc:	180b883a 	mov	r5,r3
 32024c0:	01800b44 	movi	r6,45
 32024c4:	3206ad00 	call	3206ad0 <memcpy>
 32024c8:	e0bdfe17 	ldw	r2,-2056(fp)
 32024cc:	10800b04 	addi	r2,r2,44
 32024d0:	e0bdfe15 	stw	r2,-2056(fp)
	tx_wr_pos += sprintf(tx_wr_pos, "w,xx,yy: Write value (yy) in register (xx) \n");
 32024d4:	e0bdfe17 	ldw	r2,-2056(fp)
 32024d8:	00c0c974 	movhi	r3,805
 32024dc:	18f4ed04 	addi	r3,r3,-11340
 32024e0:	1009883a 	mov	r4,r2
 32024e4:	180b883a 	mov	r5,r3
 32024e8:	01800b44 	movi	r6,45
 32024ec:	3206ad00 	call	3206ad0 <memcpy>
 32024f0:	e0bdfe17 	ldw	r2,-2056(fp)
 32024f4:	10800b04 	addi	r2,r2,44
 32024f8:	e0bdfe15 	stw	r2,-2056(fp)
	tx_wr_pos += sprintf(tx_wr_pos, "                                           \n");
 32024fc:	e0bdfe17 	ldw	r2,-2056(fp)
 3202500:	00c0c974 	movhi	r3,805
 3202504:	18f4d504 	addi	r3,r3,-11436
 3202508:	1009883a 	mov	r4,r2
 320250c:	180b883a 	mov	r5,r3
 3202510:	01800b44 	movi	r6,45
 3202514:	3206ad00 	call	3206ad0 <memcpy>
 3202518:	e0bdfe17 	ldw	r2,-2056(fp)
 320251c:	10800b04 	addi	r2,r2,44
 3202520:	e0bdfe15 	stw	r2,-2056(fp)
	tx_wr_pos += sprintf(tx_wr_pos, "C: Configure camera sensor                 \n");
 3202524:	e0bdfe17 	ldw	r2,-2056(fp)
 3202528:	00c0c974 	movhi	r3,805
 320252c:	18f4f904 	addi	r3,r3,-11292
 3202530:	1009883a 	mov	r4,r2
 3202534:	180b883a 	mov	r5,r3
 3202538:	01800b44 	movi	r6,45
 320253c:	3206ad00 	call	3206ad0 <memcpy>
 3202540:	e0bdfe17 	ldw	r2,-2056(fp)
 3202544:	10800b04 	addi	r2,r2,44
 3202548:	e0bdfe15 	stw	r2,-2056(fp)
	tx_wr_pos += sprintf(tx_wr_pos, "S: Start/Stop capture                      \n");
 320254c:	e0bdfe17 	ldw	r2,-2056(fp)
 3202550:	00c0c974 	movhi	r3,805
 3202554:	18f50504 	addi	r3,r3,-11244
 3202558:	1009883a 	mov	r4,r2
 320255c:	180b883a 	mov	r5,r3
 3202560:	01800b44 	movi	r6,45
 3202564:	3206ad00 	call	3206ad0 <memcpy>
 3202568:	e0bdfe17 	ldw	r2,-2056(fp)
 320256c:	10800b04 	addi	r2,r2,44
 3202570:	e0bdfe15 	stw	r2,-2056(fp)
	tx_wr_pos += sprintf(tx_wr_pos, "D: Send RGB image data                     \n");
 3202574:	e0bdfe17 	ldw	r2,-2056(fp)
 3202578:	00c0c974 	movhi	r3,805
 320257c:	18f51104 	addi	r3,r3,-11196
 3202580:	1009883a 	mov	r4,r2
 3202584:	180b883a 	mov	r5,r3
 3202588:	01800b44 	movi	r6,45
 320258c:	3206ad00 	call	3206ad0 <memcpy>
 3202590:	e0bdfe17 	ldw	r2,-2056(fp)
 3202594:	10800b04 	addi	r2,r2,44
 3202598:	e0bdfe15 	stw	r2,-2056(fp)
	tx_wr_pos += sprintf(tx_wr_pos, "G: Send gray image data                    \n");
 320259c:	e0bdfe17 	ldw	r2,-2056(fp)
 32025a0:	00c0c974 	movhi	r3,805
 32025a4:	18f51d04 	addi	r3,r3,-11148
 32025a8:	1009883a 	mov	r4,r2
 32025ac:	180b883a 	mov	r5,r3
 32025b0:	01800b44 	movi	r6,45
 32025b4:	3206ad00 	call	3206ad0 <memcpy>
 32025b8:	e0bdfe17 	ldw	r2,-2056(fp)
 32025bc:	10800b04 	addi	r2,r2,44
 32025c0:	e0bdfe15 	stw	r2,-2056(fp)
	tx_wr_pos += sprintf(tx_wr_pos, "V: VGA (live video mode)                   \n");
 32025c4:	e0bdfe17 	ldw	r2,-2056(fp)
 32025c8:	00c0c974 	movhi	r3,805
 32025cc:	18f52904 	addi	r3,r3,-11100
 32025d0:	1009883a 	mov	r4,r2
 32025d4:	180b883a 	mov	r5,r3
 32025d8:	01800b44 	movi	r6,45
 32025dc:	3206ad00 	call	3206ad0 <memcpy>
 32025e0:	e0bdfe17 	ldw	r2,-2056(fp)
 32025e4:	10800b04 	addi	r2,r2,44
 32025e8:	e0bdfe15 	stw	r2,-2056(fp)
	tx_wr_pos += sprintf(tx_wr_pos, "                                           \n");
 32025ec:	e0bdfe17 	ldw	r2,-2056(fp)
 32025f0:	00c0c974 	movhi	r3,805
 32025f4:	18f4d504 	addi	r3,r3,-11436
 32025f8:	1009883a 	mov	r4,r2
 32025fc:	180b883a 	mov	r5,r3
 3202600:	01800b44 	movi	r6,45
 3202604:	3206ad00 	call	3206ad0 <memcpy>
 3202608:	e0bdfe17 	ldw	r2,-2056(fp)
 320260c:	10800b04 	addi	r2,r2,44
 3202610:	e0bdfe15 	stw	r2,-2056(fp)
	tx_wr_pos += sprintf(tx_wr_pos, "Q: Terminate session                       \n");
 3202614:	e0bdfe17 	ldw	r2,-2056(fp)
 3202618:	00c0c974 	movhi	r3,805
 320261c:	18f53504 	addi	r3,r3,-11052
 3202620:	1009883a 	mov	r4,r2
 3202624:	180b883a 	mov	r5,r3
 3202628:	01800b44 	movi	r6,45
 320262c:	3206ad00 	call	3206ad0 <memcpy>
 3202630:	e0bdfe17 	ldw	r2,-2056(fp)
 3202634:	10800b04 	addi	r2,r2,44
 3202638:	e0bdfe15 	stw	r2,-2056(fp)
	tx_wr_pos += sprintf(tx_wr_pos, "===========================================\n");
 320263c:	e0bdfe17 	ldw	r2,-2056(fp)
 3202640:	00c0c974 	movhi	r3,805
 3202644:	18f4bd04 	addi	r3,r3,-11532
 3202648:	1009883a 	mov	r4,r2
 320264c:	180b883a 	mov	r5,r3
 3202650:	01800b44 	movi	r6,45
 3202654:	3206ad00 	call	3206ad0 <memcpy>
 3202658:	e0bdfe17 	ldw	r2,-2056(fp)
 320265c:	10800b04 	addi	r2,r2,44
 3202660:	e0bdfe15 	stw	r2,-2056(fp)
	tx_wr_pos += sprintf(tx_wr_pos, "Enter your choice & press return:>\n");
 3202664:	e0bdfe17 	ldw	r2,-2056(fp)
 3202668:	00c0c974 	movhi	r3,805
 320266c:	18f54104 	addi	r3,r3,-11004
 3202670:	1009883a 	mov	r4,r2
 3202674:	180b883a 	mov	r5,r3
 3202678:	01800904 	movi	r6,36
 320267c:	3206ad00 	call	3206ad0 <memcpy>
 3202680:	e0bdfe17 	ldw	r2,-2056(fp)
 3202684:	108008c4 	addi	r2,r2,35
 3202688:	e0bdfe15 	stw	r2,-2056(fp)

	send(conn->fd, tx_buf, tx_wr_pos - tx_buf, 0);
 320268c:	e0bfff17 	ldw	r2,-4(fp)
 3202690:	11000117 	ldw	r4,4(r2)
 3202694:	e17dff04 	addi	r5,fp,-2052
 3202698:	e0fdfe17 	ldw	r3,-2056(fp)
 320269c:	e0bdff04 	addi	r2,fp,-2052
 32026a0:	188dc83a 	sub	r6,r3,r2
 32026a4:	000f883a 	mov	r7,zero
 32026a8:	322f2140 	call	322f214 <t_send>
}
 32026ac:	e037883a 	mov	sp,fp
 32026b0:	dfc00117 	ldw	ra,4(sp)
 32026b4:	df000017 	ldw	fp,0(sp)
 32026b8:	dec00204 	addi	sp,sp,8
 32026bc:	f800283a 	ret

032026c0 <sss_exec_command>:
 * If the user wishes to quit, we set the "close" member of our SSSConn
 * struct, which will be looked at back in sss_handle_receive() when it 
 * comes time to see whether to close the connection or not.
 */

void sss_exec_command(SSSConn* conn) {
 32026c0:	defddd04 	addi	sp,sp,-2188
 32026c4:	dfc22215 	stw	ra,2184(sp)
 32026c8:	df022115 	stw	fp,2180(sp)
 32026cc:	dc022015 	stw	r16,2176(sp)
 32026d0:	df022004 	addi	fp,sp,2176
 32026d4:	e13ff915 	stw	r4,-28(fp)
	int bytes_to_process = conn->rx_wr_pos - conn->rx_rd_pos;
 32026d8:	e0bff917 	ldw	r2,-28(fp)
 32026dc:	10820417 	ldw	r2,2064(r2)
 32026e0:	1007883a 	mov	r3,r2
 32026e4:	e0bff917 	ldw	r2,-28(fp)
 32026e8:	10820317 	ldw	r2,2060(r2)
 32026ec:	1885c83a 	sub	r2,r3,r2
 32026f0:	e0bdf215 	stw	r2,-2104(fp)
	INT8U tx_buf[SSS_TX_BUF_SIZE];
	INT8U *tx_wr_pos = tx_buf;
 32026f4:	e0bdf304 	addi	r2,fp,-2100
 32026f8:	e0bdf115 	stw	r2,-2108(fp)
     * SSSSimpleSocketServerTask, since the LEDManagementTask does not
     * have access to the stack of the SSSSimpleSocketServerTask.
     */
    static INT32U SSSCommand;

    INT8U send_data = 0;
 32026fc:	e03df005 	stb	zero,-2112(fp)

    // Command parser
    char cmd;
    char reg[2];
    int data0, data1, data2, data3, data4;
    int captured = 0;
 3202700:	e03def15 	stw	zero,-2116(fp)
    int _captured = 0;
 3202704:	e03dee15 	stw	zero,-2120(fp)

    //printf("(%i) %s", strlen(conn->rx_rd_pos), conn->rx_rd_pos);
    sscanf(conn->rx_rd_pos, "%c,%c%c,%i,%i,%i,%i,%i", &cmd, &reg[0], &reg[1],
 3202708:	e0bff917 	ldw	r2,-28(fp)
 320270c:	10820317 	ldw	r2,2060(r2)
 3202710:	1009883a 	mov	r4,r2
 3202714:	e0bff344 	addi	r2,fp,-51
 3202718:	10800044 	addi	r2,r2,1
 320271c:	e1bff304 	addi	r6,fp,-52
 3202720:	e1fff344 	addi	r7,fp,-51
 3202724:	d8800015 	stw	r2,0(sp)
 3202728:	e0bff404 	addi	r2,fp,-48
 320272c:	d8800115 	stw	r2,4(sp)
 3202730:	e0bff504 	addi	r2,fp,-44
 3202734:	d8800215 	stw	r2,8(sp)
 3202738:	e0bff604 	addi	r2,fp,-40
 320273c:	d8800315 	stw	r2,12(sp)
 3202740:	e0bff704 	addi	r2,fp,-36
 3202744:	d8800415 	stw	r2,16(sp)
 3202748:	e0bff804 	addi	r2,fp,-32
 320274c:	d8800515 	stw	r2,20(sp)
 3202750:	0140c974 	movhi	r5,805
 3202754:	29754a04 	addi	r5,r5,-10968
 3202758:	3207b240 	call	3207b24 <sscanf>
    	   &data0, &data1, &data2, &data3, &data4);

	bytes_to_process--;
 320275c:	e0bdf217 	ldw	r2,-2104(fp)
 3202760:	10bfffc4 	addi	r2,r2,-1
 3202764:	e0bdf215 	stw	r2,-2104(fp)
    SSSCommand = toupper(*(conn->rx_rd_pos++));
 3202768:	e0bff917 	ldw	r2,-28(fp)
 320276c:	10c20317 	ldw	r3,2060(r2)
 3202770:	18800003 	ldbu	r2,0(r3)
 3202774:	10803fcc 	andi	r2,r2,255
 3202778:	e0bded15 	stw	r2,-2124(fp)
 320277c:	18c00044 	addi	r3,r3,1
 3202780:	e0bff917 	ldw	r2,-28(fp)
 3202784:	10c20315 	stw	r3,2060(r2)
 3202788:	0080c974 	movhi	r2,805
 320278c:	108a6204 	addi	r2,r2,10632
 3202790:	10c00017 	ldw	r3,0(r2)
 3202794:	e0bded17 	ldw	r2,-2124(fp)
 3202798:	1885883a 	add	r2,r3,r2
 320279c:	10800003 	ldbu	r2,0(r2)
 32027a0:	10803fcc 	andi	r2,r2,255
 32027a4:	1080008c 	andi	r2,r2,2
 32027a8:	1005003a 	cmpeq	r2,r2,zero
 32027ac:	1000041e 	bne	r2,zero,32027c0 <sss_exec_command+0x100>
 32027b0:	e0bded17 	ldw	r2,-2124(fp)
 32027b4:	10bff804 	addi	r2,r2,-32
 32027b8:	e0bffe15 	stw	r2,-8(fp)
 32027bc:	00000206 	br	32027c8 <sss_exec_command+0x108>
 32027c0:	e0bded17 	ldw	r2,-2124(fp)
 32027c4:	e0bffe15 	stw	r2,-8(fp)
 32027c8:	e0bffe17 	ldw	r2,-8(fp)
 32027cc:	d0a89515 	stw	r2,-23980(gp)
    while (bytes_to_process--) {
 32027d0:	00000506 	br	32027e8 <sss_exec_command+0x128>
    	*(conn->rx_rd_pos++);
 32027d4:	e0bff917 	ldw	r2,-28(fp)
 32027d8:	10820317 	ldw	r2,2060(r2)
 32027dc:	10c00044 	addi	r3,r2,1
 32027e0:	e0bff917 	ldw	r2,-28(fp)
 32027e4:	10c20315 	stw	r3,2060(r2)
    sscanf(conn->rx_rd_pos, "%c,%c%c,%i,%i,%i,%i,%i", &cmd, &reg[0], &reg[1],
    	   &data0, &data1, &data2, &data3, &data4);

	bytes_to_process--;
    SSSCommand = toupper(*(conn->rx_rd_pos++));
    while (bytes_to_process--) {
 32027e8:	e0bdf217 	ldw	r2,-2104(fp)
 32027ec:	10bfffc4 	addi	r2,r2,-1
 32027f0:	e0bdf215 	stw	r2,-2104(fp)
 32027f4:	e0bdf217 	ldw	r2,-2104(fp)
 32027f8:	10bfffd8 	cmpnei	r2,r2,-1
 32027fc:	103ff51e 	bne	r2,zero,32027d4 <sss_exec_command+0x114>
    	*(conn->rx_rd_pos++);
    }

    switch(SSSCommand) {
 3202800:	d0a89517 	ldw	r2,-23980(gp)
 3202804:	10bfef44 	addi	r2,r2,-67
 3202808:	e0bfff15 	stw	r2,-4(fp)
 320280c:	e0ffff17 	ldw	r3,-4(fp)
 3202810:	18800568 	cmpgeui	r2,r3,21
 3202814:	10031b1e 	bne	r2,zero,3203484 <sss_exec_command+0xdc4>
 3202818:	e13fff17 	ldw	r4,-4(fp)
 320281c:	e13fff17 	ldw	r4,-4(fp)
 3202820:	2105883a 	add	r2,r4,r4
 3202824:	1087883a 	add	r3,r2,r2
 3202828:	0080c834 	movhi	r2,800
 320282c:	108a0f04 	addi	r2,r2,10300
 3202830:	1885883a 	add	r2,r3,r2
 3202834:	10800017 	ldw	r2,0(r2)
 3202838:	1000683a 	jmp	r2
 320283c:	03203364 	muli	r12,zero,-32563
 3202840:	03203404 	movi	r12,-32560
 3202844:	03203484 	movi	r12,-32558
 3202848:	03203484 	movi	r12,-32558
 320284c:	03203424 	muli	r12,zero,-32560
 3202850:	03203484 	movi	r12,-32558
 3202854:	03203484 	movi	r12,-32558
 3202858:	03203484 	movi	r12,-32558
 320285c:	03203484 	movi	r12,-32558
 3202860:	03203484 	movi	r12,-32558
 3202864:	03203484 	movi	r12,-32558
 3202868:	03203484 	movi	r12,-32558
 320286c:	03203484 	movi	r12,-32558
 3202870:	03203484 	movi	r12,-32558
 3202874:	03203484 	movi	r12,-32558
 3202878:	03202890 	cmplti	r12,zero,-32606
 320287c:	032033a4 	muli	r12,zero,-32562
 3202880:	03203484 	movi	r12,-32558
 3202884:	03203484 	movi	r12,-32558
 3202888:	03203444 	movi	r12,-32559
 320288c:	03202de4 	muli	r12,zero,-32585
		case CMD_READ:
			/* Reads camera image registers */
			if (reg[0] == 'i' && reg[1] == 's') { // image size (width, height)
 3202890:	e0bff343 	ldbu	r2,-51(fp)
 3202894:	10803fcc 	andi	r2,r2,255
 3202898:	1080201c 	xori	r2,r2,128
 320289c:	10bfe004 	addi	r2,r2,-128
 32028a0:	10801a58 	cmpnei	r2,r2,105
 32028a4:	10000f1e 	bne	r2,zero,32028e4 <sss_exec_command+0x224>
 32028a8:	e0bff383 	ldbu	r2,-50(fp)
 32028ac:	10803fcc 	andi	r2,r2,255
 32028b0:	1080201c 	xori	r2,r2,128
 32028b4:	10bfe004 	addi	r2,r2,-128
 32028b8:	10801cd8 	cmpnei	r2,r2,115
 32028bc:	1000091e 	bne	r2,zero,32028e4 <sss_exec_command+0x224>
				tx_wr_pos += get_image_size(&camera, tx_wr_pos);
 32028c0:	e17df117 	ldw	r5,-2108(fp)
 32028c4:	0100c974 	movhi	r4,805
 32028c8:	21027504 	addi	r4,r4,2516
 32028cc:	32010300 	call	3201030 <get_image_size>
 32028d0:	1007883a 	mov	r3,r2
 32028d4:	e0bdf117 	ldw	r2,-2108(fp)
 32028d8:	10c5883a 	add	r2,r2,r3
 32028dc:	e0bdf115 	stw	r2,-2108(fp)
    }

    switch(SSSCommand) {
		case CMD_READ:
			/* Reads camera image registers */
			if (reg[0] == 'i' && reg[1] == 's') { // image size (width, height)
 32028e0:	00013806 	br	3202dc4 <sss_exec_command+0x704>
				tx_wr_pos += get_image_size(&camera, tx_wr_pos);
			}
			else if (reg[0] == 'i' && reg[1] == 'e') { // image exposure (exposure)
 32028e4:	e0bff343 	ldbu	r2,-51(fp)
 32028e8:	10803fcc 	andi	r2,r2,255
 32028ec:	1080201c 	xori	r2,r2,128
 32028f0:	10bfe004 	addi	r2,r2,-128
 32028f4:	10801a58 	cmpnei	r2,r2,105
 32028f8:	10000f1e 	bne	r2,zero,3202938 <sss_exec_command+0x278>
 32028fc:	e0bff383 	ldbu	r2,-50(fp)
 3202900:	10803fcc 	andi	r2,r2,255
 3202904:	1080201c 	xori	r2,r2,128
 3202908:	10bfe004 	addi	r2,r2,-128
 320290c:	10801958 	cmpnei	r2,r2,101
 3202910:	1000091e 	bne	r2,zero,3202938 <sss_exec_command+0x278>
				tx_wr_pos += get_image_exposure(&camera, tx_wr_pos);
 3202914:	e17df117 	ldw	r5,-2108(fp)
 3202918:	0100c974 	movhi	r4,805
 320291c:	21027504 	addi	r4,r4,2516
 3202920:	32010e00 	call	32010e0 <get_image_exposure>
 3202924:	1007883a 	mov	r3,r2
 3202928:	e0bdf117 	ldw	r2,-2108(fp)
 320292c:	10c5883a 	add	r2,r2,r3
 3202930:	e0bdf115 	stw	r2,-2108(fp)
		case CMD_READ:
			/* Reads camera image registers */
			if (reg[0] == 'i' && reg[1] == 's') { // image size (width, height)
				tx_wr_pos += get_image_size(&camera, tx_wr_pos);
			}
			else if (reg[0] == 'i' && reg[1] == 'e') { // image exposure (exposure)
 3202934:	00012306 	br	3202dc4 <sss_exec_command+0x704>
				tx_wr_pos += get_image_exposure(&camera, tx_wr_pos);
			}
			else if (reg[0] == 's' && reg[1] == 'i') { // start image (start_column, start_row)
 3202938:	e0bff343 	ldbu	r2,-51(fp)
 320293c:	10803fcc 	andi	r2,r2,255
 3202940:	1080201c 	xori	r2,r2,128
 3202944:	10bfe004 	addi	r2,r2,-128
 3202948:	10801cd8 	cmpnei	r2,r2,115
 320294c:	10000f1e 	bne	r2,zero,320298c <sss_exec_command+0x2cc>
 3202950:	e0bff383 	ldbu	r2,-50(fp)
 3202954:	10803fcc 	andi	r2,r2,255
 3202958:	1080201c 	xori	r2,r2,128
 320295c:	10bfe004 	addi	r2,r2,-128
 3202960:	10801a58 	cmpnei	r2,r2,105
 3202964:	1000091e 	bne	r2,zero,320298c <sss_exec_command+0x2cc>
				tx_wr_pos += get_start_image(&camera, tx_wr_pos);
 3202968:	e17df117 	ldw	r5,-2108(fp)
 320296c:	0100c974 	movhi	r4,805
 3202970:	21027504 	addi	r4,r4,2516
 3202974:	32011780 	call	3201178 <get_start_image>
 3202978:	1007883a 	mov	r3,r2
 320297c:	e0bdf117 	ldw	r2,-2108(fp)
 3202980:	10c5883a 	add	r2,r2,r3
 3202984:	e0bdf115 	stw	r2,-2108(fp)
				tx_wr_pos += get_image_size(&camera, tx_wr_pos);
			}
			else if (reg[0] == 'i' && reg[1] == 'e') { // image exposure (exposure)
				tx_wr_pos += get_image_exposure(&camera, tx_wr_pos);
			}
			else if (reg[0] == 's' && reg[1] == 'i') { // start image (start_column, start_row)
 3202988:	00010e06 	br	3202dc4 <sss_exec_command+0x704>
				tx_wr_pos += get_start_image(&camera, tx_wr_pos);
			}
			else if (reg[0] == 's' && reg[1] == 's') { // sensor size (column_size, row_size)
 320298c:	e0bff343 	ldbu	r2,-51(fp)
 3202990:	10803fcc 	andi	r2,r2,255
 3202994:	1080201c 	xori	r2,r2,128
 3202998:	10bfe004 	addi	r2,r2,-128
 320299c:	10801cd8 	cmpnei	r2,r2,115
 32029a0:	10000f1e 	bne	r2,zero,32029e0 <sss_exec_command+0x320>
 32029a4:	e0bff383 	ldbu	r2,-50(fp)
 32029a8:	10803fcc 	andi	r2,r2,255
 32029ac:	1080201c 	xori	r2,r2,128
 32029b0:	10bfe004 	addi	r2,r2,-128
 32029b4:	10801cd8 	cmpnei	r2,r2,115
 32029b8:	1000091e 	bne	r2,zero,32029e0 <sss_exec_command+0x320>
				tx_wr_pos += get_sensor_size(&camera, tx_wr_pos);
 32029bc:	e17df117 	ldw	r5,-2108(fp)
 32029c0:	0100c974 	movhi	r4,805
 32029c4:	21027504 	addi	r4,r4,2516
 32029c8:	32012280 	call	3201228 <get_sensor_size>
 32029cc:	1007883a 	mov	r3,r2
 32029d0:	e0bdf117 	ldw	r2,-2108(fp)
 32029d4:	10c5883a 	add	r2,r2,r3
 32029d8:	e0bdf115 	stw	r2,-2108(fp)
				tx_wr_pos += get_image_exposure(&camera, tx_wr_pos);
			}
			else if (reg[0] == 's' && reg[1] == 'i') { // start image (start_column, start_row)
				tx_wr_pos += get_start_image(&camera, tx_wr_pos);
			}
			else if (reg[0] == 's' && reg[1] == 's') { // sensor size (column_size, row_size)
 32029dc:	0000f906 	br	3202dc4 <sss_exec_command+0x704>
				tx_wr_pos += get_sensor_size(&camera, tx_wr_pos);
			}
			else if (reg[0] == 's' && reg[1] == 'm') { // sensor mode (column_mode, row_mode)
 32029e0:	e0bff343 	ldbu	r2,-51(fp)
 32029e4:	10803fcc 	andi	r2,r2,255
 32029e8:	1080201c 	xori	r2,r2,128
 32029ec:	10bfe004 	addi	r2,r2,-128
 32029f0:	10801cd8 	cmpnei	r2,r2,115
 32029f4:	10000f1e 	bne	r2,zero,3202a34 <sss_exec_command+0x374>
 32029f8:	e0bff383 	ldbu	r2,-50(fp)
 32029fc:	10803fcc 	andi	r2,r2,255
 3202a00:	1080201c 	xori	r2,r2,128
 3202a04:	10bfe004 	addi	r2,r2,-128
 3202a08:	10801b58 	cmpnei	r2,r2,109
 3202a0c:	1000091e 	bne	r2,zero,3202a34 <sss_exec_command+0x374>
				tx_wr_pos += get_sensor_mode(&camera, tx_wr_pos);
 3202a10:	e17df117 	ldw	r5,-2108(fp)
 3202a14:	0100c974 	movhi	r4,805
 3202a18:	21027504 	addi	r4,r4,2516
 3202a1c:	32012d80 	call	32012d8 <get_sensor_mode>
 3202a20:	1007883a 	mov	r3,r2
 3202a24:	e0bdf117 	ldw	r2,-2108(fp)
 3202a28:	10c5883a 	add	r2,r2,r3
 3202a2c:	e0bdf115 	stw	r2,-2108(fp)
				tx_wr_pos += get_start_image(&camera, tx_wr_pos);
			}
			else if (reg[0] == 's' && reg[1] == 's') { // sensor size (column_size, row_size)
				tx_wr_pos += get_sensor_size(&camera, tx_wr_pos);
			}
			else if (reg[0] == 's' && reg[1] == 'm') { // sensor mode (column_mode, row_mode)
 3202a30:	0000e406 	br	3202dc4 <sss_exec_command+0x704>
				tx_wr_pos += get_sensor_mode(&camera, tx_wr_pos);
			}
			/* Reads thresholds (min, max) */
			else if (reg[0] == 'r' && reg[1] == 't') {
 3202a34:	e0bff343 	ldbu	r2,-51(fp)
 3202a38:	10803fcc 	andi	r2,r2,255
 3202a3c:	1080201c 	xori	r2,r2,128
 3202a40:	10bfe004 	addi	r2,r2,-128
 3202a44:	10801c98 	cmpnei	r2,r2,114
 3202a48:	1000191e 	bne	r2,zero,3202ab0 <sss_exec_command+0x3f0>
 3202a4c:	e0bff383 	ldbu	r2,-50(fp)
 3202a50:	10803fcc 	andi	r2,r2,255
 3202a54:	1080201c 	xori	r2,r2,128
 3202a58:	10bfe004 	addi	r2,r2,-128
 3202a5c:	10801d18 	cmpnei	r2,r2,116
 3202a60:	1000131e 	bne	r2,zero,3202ab0 <sss_exec_command+0x3f0>
				data0 = IORD_SENSOR_RED_THRESHOLD_MIN(SENSOR_BASE);
 3202a64:	0080d034 	movhi	r2,832
 3202a68:	10880004 	addi	r2,r2,8192
 3202a6c:	10800037 	ldwio	r2,0(r2)
 3202a70:	e0bff415 	stw	r2,-48(fp)
				data1 = IORD_SENSOR_RED_THRESHOLD_MAX(SENSOR_BASE);
 3202a74:	0080d034 	movhi	r2,832
 3202a78:	10880404 	addi	r2,r2,8208
 3202a7c:	10800037 	ldwio	r2,0(r2)
 3202a80:	e0bff515 	stw	r2,-44(fp)
				tx_wr_pos += sprintf(tx_wr_pos, "(%i,%i)", data0, data1);
 3202a84:	e13df117 	ldw	r4,-2108(fp)
 3202a88:	e1bff417 	ldw	r6,-48(fp)
 3202a8c:	e1fff517 	ldw	r7,-44(fp)
 3202a90:	0140c974 	movhi	r5,805
 3202a94:	29755004 	addi	r5,r5,-10944
 3202a98:	32079c00 	call	32079c0 <sprintf>
 3202a9c:	1007883a 	mov	r3,r2
 3202aa0:	e0bdf117 	ldw	r2,-2108(fp)
 3202aa4:	10c5883a 	add	r2,r2,r3
 3202aa8:	e0bdf115 	stw	r2,-2108(fp)
			}
			else if (reg[0] == 's' && reg[1] == 'm') { // sensor mode (column_mode, row_mode)
				tx_wr_pos += get_sensor_mode(&camera, tx_wr_pos);
			}
			/* Reads thresholds (min, max) */
			else if (reg[0] == 'r' && reg[1] == 't') {
 3202aac:	0000c506 	br	3202dc4 <sss_exec_command+0x704>
				data0 = IORD_SENSOR_RED_THRESHOLD_MIN(SENSOR_BASE);
				data1 = IORD_SENSOR_RED_THRESHOLD_MAX(SENSOR_BASE);
				tx_wr_pos += sprintf(tx_wr_pos, "(%i,%i)", data0, data1);
			}
			else if (reg[0] == 'g' && reg[1] == 't') {
 3202ab0:	e0bff343 	ldbu	r2,-51(fp)
 3202ab4:	10803fcc 	andi	r2,r2,255
 3202ab8:	1080201c 	xori	r2,r2,128
 3202abc:	10bfe004 	addi	r2,r2,-128
 3202ac0:	108019d8 	cmpnei	r2,r2,103
 3202ac4:	1000191e 	bne	r2,zero,3202b2c <sss_exec_command+0x46c>
 3202ac8:	e0bff383 	ldbu	r2,-50(fp)
 3202acc:	10803fcc 	andi	r2,r2,255
 3202ad0:	1080201c 	xori	r2,r2,128
 3202ad4:	10bfe004 	addi	r2,r2,-128
 3202ad8:	10801d18 	cmpnei	r2,r2,116
 3202adc:	1000131e 	bne	r2,zero,3202b2c <sss_exec_command+0x46c>
				data0 = IORD_SENSOR_GREEN_THRESHOLD_MIN(SENSOR_BASE);
 3202ae0:	0080d034 	movhi	r2,832
 3202ae4:	10880804 	addi	r2,r2,8224
 3202ae8:	10800037 	ldwio	r2,0(r2)
 3202aec:	e0bff415 	stw	r2,-48(fp)
				data1 = IORD_SENSOR_GREEN_THRESHOLD_MAX(SENSOR_BASE);
 3202af0:	0080d034 	movhi	r2,832
 3202af4:	10880c04 	addi	r2,r2,8240
 3202af8:	10800037 	ldwio	r2,0(r2)
 3202afc:	e0bff515 	stw	r2,-44(fp)
				tx_wr_pos += sprintf(tx_wr_pos, "(%i,%i)", data0, data1);
 3202b00:	e13df117 	ldw	r4,-2108(fp)
 3202b04:	e1bff417 	ldw	r6,-48(fp)
 3202b08:	e1fff517 	ldw	r7,-44(fp)
 3202b0c:	0140c974 	movhi	r5,805
 3202b10:	29755004 	addi	r5,r5,-10944
 3202b14:	32079c00 	call	32079c0 <sprintf>
 3202b18:	1007883a 	mov	r3,r2
 3202b1c:	e0bdf117 	ldw	r2,-2108(fp)
 3202b20:	10c5883a 	add	r2,r2,r3
 3202b24:	e0bdf115 	stw	r2,-2108(fp)
			else if (reg[0] == 'r' && reg[1] == 't') {
				data0 = IORD_SENSOR_RED_THRESHOLD_MIN(SENSOR_BASE);
				data1 = IORD_SENSOR_RED_THRESHOLD_MAX(SENSOR_BASE);
				tx_wr_pos += sprintf(tx_wr_pos, "(%i,%i)", data0, data1);
			}
			else if (reg[0] == 'g' && reg[1] == 't') {
 3202b28:	0000a606 	br	3202dc4 <sss_exec_command+0x704>
				data0 = IORD_SENSOR_GREEN_THRESHOLD_MIN(SENSOR_BASE);
				data1 = IORD_SENSOR_GREEN_THRESHOLD_MAX(SENSOR_BASE);
				tx_wr_pos += sprintf(tx_wr_pos, "(%i,%i)", data0, data1);
			}
			else if (reg[0] == 'b' && reg[1] == 't') {
 3202b2c:	e0bff343 	ldbu	r2,-51(fp)
 3202b30:	10803fcc 	andi	r2,r2,255
 3202b34:	1080201c 	xori	r2,r2,128
 3202b38:	10bfe004 	addi	r2,r2,-128
 3202b3c:	10801898 	cmpnei	r2,r2,98
 3202b40:	1000191e 	bne	r2,zero,3202ba8 <sss_exec_command+0x4e8>
 3202b44:	e0bff383 	ldbu	r2,-50(fp)
 3202b48:	10803fcc 	andi	r2,r2,255
 3202b4c:	1080201c 	xori	r2,r2,128
 3202b50:	10bfe004 	addi	r2,r2,-128
 3202b54:	10801d18 	cmpnei	r2,r2,116
 3202b58:	1000131e 	bne	r2,zero,3202ba8 <sss_exec_command+0x4e8>
				data0 = IORD_SENSOR_BLUE_THRESHOLD_MIN(SENSOR_BASE);
 3202b5c:	0080d034 	movhi	r2,832
 3202b60:	10881004 	addi	r2,r2,8256
 3202b64:	10800037 	ldwio	r2,0(r2)
 3202b68:	e0bff415 	stw	r2,-48(fp)
				data1 = IORD_SENSOR_BLUE_THRESHOLD_MAX(SENSOR_BASE);
 3202b6c:	0080d034 	movhi	r2,832
 3202b70:	10881404 	addi	r2,r2,8272
 3202b74:	10800037 	ldwio	r2,0(r2)
 3202b78:	e0bff515 	stw	r2,-44(fp)
				tx_wr_pos += sprintf(tx_wr_pos, "(%i,%i)", data0, data1);
 3202b7c:	e13df117 	ldw	r4,-2108(fp)
 3202b80:	e1bff417 	ldw	r6,-48(fp)
 3202b84:	e1fff517 	ldw	r7,-44(fp)
 3202b88:	0140c974 	movhi	r5,805
 3202b8c:	29755004 	addi	r5,r5,-10944
 3202b90:	32079c00 	call	32079c0 <sprintf>
 3202b94:	1007883a 	mov	r3,r2
 3202b98:	e0bdf117 	ldw	r2,-2108(fp)
 3202b9c:	10c5883a 	add	r2,r2,r3
 3202ba0:	e0bdf115 	stw	r2,-2108(fp)
			else if (reg[0] == 'g' && reg[1] == 't') {
				data0 = IORD_SENSOR_GREEN_THRESHOLD_MIN(SENSOR_BASE);
				data1 = IORD_SENSOR_GREEN_THRESHOLD_MAX(SENSOR_BASE);
				tx_wr_pos += sprintf(tx_wr_pos, "(%i,%i)", data0, data1);
			}
			else if (reg[0] == 'b' && reg[1] == 't') {
 3202ba4:	00008706 	br	3202dc4 <sss_exec_command+0x704>
				data0 = IORD_SENSOR_BLUE_THRESHOLD_MIN(SENSOR_BASE);
				data1 = IORD_SENSOR_BLUE_THRESHOLD_MAX(SENSOR_BASE);
				tx_wr_pos += sprintf(tx_wr_pos, "(%i,%i)", data0, data1);
			}
			/* Reads the number of tracker resources */
			else if (reg[0] == 't' && reg[1] == 'r') {
 3202ba8:	e0bff343 	ldbu	r2,-51(fp)
 3202bac:	10803fcc 	andi	r2,r2,255
 3202bb0:	1080201c 	xori	r2,r2,128
 3202bb4:	10bfe004 	addi	r2,r2,-128
 3202bb8:	10801d18 	cmpnei	r2,r2,116
 3202bbc:	1000121e 	bne	r2,zero,3202c08 <sss_exec_command+0x548>
 3202bc0:	e0bff383 	ldbu	r2,-50(fp)
 3202bc4:	10803fcc 	andi	r2,r2,255
 3202bc8:	1080201c 	xori	r2,r2,128
 3202bcc:	10bfe004 	addi	r2,r2,-128
 3202bd0:	10801c98 	cmpnei	r2,r2,114
 3202bd4:	10000c1e 	bne	r2,zero,3202c08 <sss_exec_command+0x548>
				tx_wr_pos += sprintf(tx_wr_pos, "%i", trackers_number());
 3202bd8:	e43df117 	ldw	r16,-2108(fp)
 3202bdc:	3203ca00 	call	3203ca0 <trackers_number>
 3202be0:	100d883a 	mov	r6,r2
 3202be4:	8009883a 	mov	r4,r16
 3202be8:	0140c974 	movhi	r5,805
 3202bec:	29755204 	addi	r5,r5,-10936
 3202bf0:	32079c00 	call	32079c0 <sprintf>
 3202bf4:	1007883a 	mov	r3,r2
 3202bf8:	e0bdf117 	ldw	r2,-2108(fp)
 3202bfc:	10c5883a 	add	r2,r2,r3
 3202c00:	e0bdf115 	stw	r2,-2108(fp)
				data0 = IORD_SENSOR_BLUE_THRESHOLD_MIN(SENSOR_BASE);
				data1 = IORD_SENSOR_BLUE_THRESHOLD_MAX(SENSOR_BASE);
				tx_wr_pos += sprintf(tx_wr_pos, "(%i,%i)", data0, data1);
			}
			/* Reads the number of tracker resources */
			else if (reg[0] == 't' && reg[1] == 'r') {
 3202c04:	00006f06 	br	3202dc4 <sss_exec_command+0x704>
				tx_wr_pos += sprintf(tx_wr_pos, "%i", trackers_number());
			}
			/* Reads the search window of the assigned tracker (left, top, right, bottom) */
			else if (reg[0] == 's' && reg[1] == 'w') {
 3202c08:	e0bff343 	ldbu	r2,-51(fp)
 3202c0c:	10803fcc 	andi	r2,r2,255
 3202c10:	1080201c 	xori	r2,r2,128
 3202c14:	10bfe004 	addi	r2,r2,-128
 3202c18:	10801cd8 	cmpnei	r2,r2,115
 3202c1c:	10000e1e 	bne	r2,zero,3202c58 <sss_exec_command+0x598>
 3202c20:	e0bff383 	ldbu	r2,-50(fp)
 3202c24:	10803fcc 	andi	r2,r2,255
 3202c28:	1080201c 	xori	r2,r2,128
 3202c2c:	10bfe004 	addi	r2,r2,-128
 3202c30:	10801dd8 	cmpnei	r2,r2,119
 3202c34:	1000081e 	bne	r2,zero,3202c58 <sss_exec_command+0x598>
				tx_wr_pos += get_search_window_of_tracker(data0, tx_wr_pos);
 3202c38:	e13ff417 	ldw	r4,-48(fp)
 3202c3c:	e17df117 	ldw	r5,-2108(fp)
 3202c40:	32042240 	call	3204224 <get_search_window_of_tracker>
 3202c44:	1007883a 	mov	r3,r2
 3202c48:	e0bdf117 	ldw	r2,-2108(fp)
 3202c4c:	10c5883a 	add	r2,r2,r3
 3202c50:	e0bdf115 	stw	r2,-2108(fp)
			/* Reads the number of tracker resources */
			else if (reg[0] == 't' && reg[1] == 'r') {
				tx_wr_pos += sprintf(tx_wr_pos, "%i", trackers_number());
			}
			/* Reads the search window of the assigned tracker (left, top, right, bottom) */
			else if (reg[0] == 's' && reg[1] == 'w') {
 3202c54:	00005b06 	br	3202dc4 <sss_exec_command+0x704>
				tx_wr_pos += get_search_window_of_tracker(data0, tx_wr_pos);
			}
			/* Reads the corners locations of the assigned tracker ((x0, y0),...,(x7,y7)) */
			else if (reg[0] == 'c' && reg[1] == 'l') {
 3202c58:	e0bff343 	ldbu	r2,-51(fp)
 3202c5c:	10803fcc 	andi	r2,r2,255
 3202c60:	1080201c 	xori	r2,r2,128
 3202c64:	10bfe004 	addi	r2,r2,-128
 3202c68:	108018d8 	cmpnei	r2,r2,99
 3202c6c:	1000161e 	bne	r2,zero,3202cc8 <sss_exec_command+0x608>
 3202c70:	e0bff383 	ldbu	r2,-50(fp)
 3202c74:	10803fcc 	andi	r2,r2,255
 3202c78:	1080201c 	xori	r2,r2,128
 3202c7c:	10bfe004 	addi	r2,r2,-128
 3202c80:	10801b18 	cmpnei	r2,r2,108
 3202c84:	1000101e 	bne	r2,zero,3202cc8 <sss_exec_command+0x608>
				while (!IORD_CAMERA_CAPTURE_DONE(CAMERA_BASE)) OSTimeDly(1);
 3202c88:	00000206 	br	3202c94 <sss_exec_command+0x5d4>
 3202c8c:	01000044 	movi	r4,1
 3202c90:	321d27c0 	call	321d27c <OSTimeDly>
 3202c94:	0080d034 	movhi	r2,832
 3202c98:	10890004 	addi	r2,r2,9216
 3202c9c:	10800037 	ldwio	r2,0(r2)
 3202ca0:	1005003a 	cmpeq	r2,r2,zero
 3202ca4:	103ff91e 	bne	r2,zero,3202c8c <sss_exec_command+0x5cc>
				tx_wr_pos += get_current_corners_of_tracker(data0, tx_wr_pos);
 3202ca8:	e13ff417 	ldw	r4,-48(fp)
 3202cac:	e17df117 	ldw	r5,-2108(fp)
 3202cb0:	32042d80 	call	32042d8 <get_current_corners_of_tracker>
 3202cb4:	1007883a 	mov	r3,r2
 3202cb8:	e0bdf117 	ldw	r2,-2108(fp)
 3202cbc:	10c5883a 	add	r2,r2,r3
 3202cc0:	e0bdf115 	stw	r2,-2108(fp)
			/* Reads the search window of the assigned tracker (left, top, right, bottom) */
			else if (reg[0] == 's' && reg[1] == 'w') {
				tx_wr_pos += get_search_window_of_tracker(data0, tx_wr_pos);
			}
			/* Reads the corners locations of the assigned tracker ((x0, y0),...,(x7,y7)) */
			else if (reg[0] == 'c' && reg[1] == 'l') {
 3202cc4:	00003f06 	br	3202dc4 <sss_exec_command+0x704>
				while (!IORD_CAMERA_CAPTURE_DONE(CAMERA_BASE)) OSTimeDly(1);
				tx_wr_pos += get_current_corners_of_tracker(data0, tx_wr_pos);
			}
			/* Reads all search windows of activated trackers */
			else if (reg[0] == 'a' && reg[1] == 'w') {
 3202cc8:	e0bff343 	ldbu	r2,-51(fp)
 3202ccc:	10803fcc 	andi	r2,r2,255
 3202cd0:	1080201c 	xori	r2,r2,128
 3202cd4:	10bfe004 	addi	r2,r2,-128
 3202cd8:	10801858 	cmpnei	r2,r2,97
 3202cdc:	10000d1e 	bne	r2,zero,3202d14 <sss_exec_command+0x654>
 3202ce0:	e0bff383 	ldbu	r2,-50(fp)
 3202ce4:	10803fcc 	andi	r2,r2,255
 3202ce8:	1080201c 	xori	r2,r2,128
 3202cec:	10bfe004 	addi	r2,r2,-128
 3202cf0:	10801dd8 	cmpnei	r2,r2,119
 3202cf4:	1000071e 	bne	r2,zero,3202d14 <sss_exec_command+0x654>
				//while (!IORD_CAMERA_CAPTURE_DONE(CAMERA_BASE));
				// Reads all search windows
				tx_wr_pos += get_current_windows_of_activated_trackers(tx_wr_pos);
 3202cf8:	e13df117 	ldw	r4,-2108(fp)
 3202cfc:	320438c0 	call	320438c <get_current_windows_of_activated_trackers>
 3202d00:	1007883a 	mov	r3,r2
 3202d04:	e0bdf117 	ldw	r2,-2108(fp)
 3202d08:	10c5883a 	add	r2,r2,r3
 3202d0c:	e0bdf115 	stw	r2,-2108(fp)
			else if (reg[0] == 'c' && reg[1] == 'l') {
				while (!IORD_CAMERA_CAPTURE_DONE(CAMERA_BASE)) OSTimeDly(1);
				tx_wr_pos += get_current_corners_of_tracker(data0, tx_wr_pos);
			}
			/* Reads all search windows of activated trackers */
			else if (reg[0] == 'a' && reg[1] == 'w') {
 3202d10:	00002c06 	br	3202dc4 <sss_exec_command+0x704>
				//while (!IORD_CAMERA_CAPTURE_DONE(CAMERA_BASE));
				// Reads all search windows
				tx_wr_pos += get_current_windows_of_activated_trackers(tx_wr_pos);
			}
			/* Reads all corners locations and captures a new frame */
			else if (reg[0] == 'a' && reg[1] == 'l') {
 3202d14:	e0bff343 	ldbu	r2,-51(fp)
 3202d18:	10803fcc 	andi	r2,r2,255
 3202d1c:	1080201c 	xori	r2,r2,128
 3202d20:	10bfe004 	addi	r2,r2,-128
 3202d24:	10801858 	cmpnei	r2,r2,97
 3202d28:	10001c1e 	bne	r2,zero,3202d9c <sss_exec_command+0x6dc>
 3202d2c:	e0bff383 	ldbu	r2,-50(fp)
 3202d30:	10803fcc 	andi	r2,r2,255
 3202d34:	1080201c 	xori	r2,r2,128
 3202d38:	10bfe004 	addi	r2,r2,-128
 3202d3c:	10801b18 	cmpnei	r2,r2,108
 3202d40:	1000161e 	bne	r2,zero,3202d9c <sss_exec_command+0x6dc>
				while (!IORD_CAMERA_CAPTURE_DONE(CAMERA_BASE)) OSTimeDly(1);
 3202d44:	00000206 	br	3202d50 <sss_exec_command+0x690>
 3202d48:	01000044 	movi	r4,1
 3202d4c:	321d27c0 	call	321d27c <OSTimeDly>
 3202d50:	0080d034 	movhi	r2,832
 3202d54:	10890004 	addi	r2,r2,9216
 3202d58:	10800037 	ldwio	r2,0(r2)
 3202d5c:	1005003a 	cmpeq	r2,r2,zero
 3202d60:	103ff91e 	bne	r2,zero,3202d48 <sss_exec_command+0x688>
				// Captures a new frame
				IOWR_CAMERA_CAPTURE_START(CAMERA_BASE);
 3202d64:	00c0d034 	movhi	r3,832
 3202d68:	18c90004 	addi	r3,r3,9216
 3202d6c:	00800044 	movi	r2,1
 3202d70:	18800035 	stwio	r2,0(r3)
				IOWR_CAMERA_CAPTURE_STOP(CAMERA_BASE);
 3202d74:	0080d034 	movhi	r2,832
 3202d78:	10890004 	addi	r2,r2,9216
 3202d7c:	10000035 	stwio	zero,0(r2)
				// Reads all corners locations
				tx_wr_pos += get_current_corners_of_activated_trackers(tx_wr_pos);
 3202d80:	e13df117 	ldw	r4,-2108(fp)
 3202d84:	32045080 	call	3204508 <get_current_corners_of_activated_trackers>
 3202d88:	1007883a 	mov	r3,r2
 3202d8c:	e0bdf117 	ldw	r2,-2108(fp)
 3202d90:	10c5883a 	add	r2,r2,r3
 3202d94:	e0bdf115 	stw	r2,-2108(fp)
				//while (!IORD_CAMERA_CAPTURE_DONE(CAMERA_BASE));
				// Reads all search windows
				tx_wr_pos += get_current_windows_of_activated_trackers(tx_wr_pos);
			}
			/* Reads all corners locations and captures a new frame */
			else if (reg[0] == 'a' && reg[1] == 'l') {
 3202d98:	00000a06 	br	3202dc4 <sss_exec_command+0x704>
				IOWR_CAMERA_CAPTURE_STOP(CAMERA_BASE);
				// Reads all corners locations
				tx_wr_pos += get_current_corners_of_activated_trackers(tx_wr_pos);
			}
			else {
				tx_wr_pos += sprintf(tx_wr_pos, "Wrong command!");
 3202d9c:	e0bdf117 	ldw	r2,-2108(fp)
 3202da0:	00c0c974 	movhi	r3,805
 3202da4:	18f55304 	addi	r3,r3,-10932
 3202da8:	1009883a 	mov	r4,r2
 3202dac:	180b883a 	mov	r5,r3
 3202db0:	018003c4 	movi	r6,15
 3202db4:	3206ad00 	call	3206ad0 <memcpy>
 3202db8:	e0bdf117 	ldw	r2,-2108(fp)
 3202dbc:	10800384 	addi	r2,r2,14
 3202dc0:	e0bdf115 	stw	r2,-2108(fp)
			}
			tx_wr_pos += sprintf(tx_wr_pos, "\n");
 3202dc4:	e0fdf117 	ldw	r3,-2108(fp)
 3202dc8:	00800284 	movi	r2,10
 3202dcc:	18800005 	stb	r2,0(r3)
 3202dd0:	18000045 	stb	zero,1(r3)
 3202dd4:	e0bdf117 	ldw	r2,-2108(fp)
 3202dd8:	10800044 	addi	r2,r2,1
 3202ddc:	e0bdf115 	stw	r2,-2108(fp)
			break;
 3202de0:	0001ce06 	br	320351c <sss_exec_command+0xe5c>
		case CMD_WRITE:
			/* Writes camera image registers */
			if (reg[0] == 'i' && reg[1] == 's') { // image size (width, height)
 3202de4:	e0bff343 	ldbu	r2,-51(fp)
 3202de8:	10803fcc 	andi	r2,r2,255
 3202dec:	1080201c 	xori	r2,r2,128
 3202df0:	10bfe004 	addi	r2,r2,-128
 3202df4:	10801a58 	cmpnei	r2,r2,105
 3202df8:	1000111e 	bne	r2,zero,3202e40 <sss_exec_command+0x780>
 3202dfc:	e0bff383 	ldbu	r2,-50(fp)
 3202e00:	10803fcc 	andi	r2,r2,255
 3202e04:	1080201c 	xori	r2,r2,128
 3202e08:	10bfe004 	addi	r2,r2,-128
 3202e0c:	10801cd8 	cmpnei	r2,r2,115
 3202e10:	10000b1e 	bne	r2,zero,3202e40 <sss_exec_command+0x780>
				tx_wr_pos += set_image_size(&camera, tx_wr_pos, data0, data1);
 3202e14:	e17df117 	ldw	r5,-2108(fp)
 3202e18:	e1bff417 	ldw	r6,-48(fp)
 3202e1c:	e1fff517 	ldw	r7,-44(fp)
 3202e20:	0100c974 	movhi	r4,805
 3202e24:	21027504 	addi	r4,r4,2516
 3202e28:	32010880 	call	3201088 <set_image_size>
 3202e2c:	1007883a 	mov	r3,r2
 3202e30:	e0bdf117 	ldw	r2,-2108(fp)
 3202e34:	10c5883a 	add	r2,r2,r3
 3202e38:	e0bdf115 	stw	r2,-2108(fp)
			}
			tx_wr_pos += sprintf(tx_wr_pos, "\n");
			break;
		case CMD_WRITE:
			/* Writes camera image registers */
			if (reg[0] == 'i' && reg[1] == 's') { // image size (width, height)
 3202e3c:	00014106 	br	3203344 <sss_exec_command+0xc84>
				tx_wr_pos += set_image_size(&camera, tx_wr_pos, data0, data1);
			}
			else if (reg[0] == 'i' && reg[1] == 'e') { // image exposure (exposure)
 3202e40:	e0bff343 	ldbu	r2,-51(fp)
 3202e44:	10803fcc 	andi	r2,r2,255
 3202e48:	1080201c 	xori	r2,r2,128
 3202e4c:	10bfe004 	addi	r2,r2,-128
 3202e50:	10801a58 	cmpnei	r2,r2,105
 3202e54:	1000101e 	bne	r2,zero,3202e98 <sss_exec_command+0x7d8>
 3202e58:	e0bff383 	ldbu	r2,-50(fp)
 3202e5c:	10803fcc 	andi	r2,r2,255
 3202e60:	1080201c 	xori	r2,r2,128
 3202e64:	10bfe004 	addi	r2,r2,-128
 3202e68:	10801958 	cmpnei	r2,r2,101
 3202e6c:	10000a1e 	bne	r2,zero,3202e98 <sss_exec_command+0x7d8>
				tx_wr_pos += set_image_exposure(&camera, tx_wr_pos, data0);
 3202e70:	e17df117 	ldw	r5,-2108(fp)
 3202e74:	e1bff417 	ldw	r6,-48(fp)
 3202e78:	0100c974 	movhi	r4,805
 3202e7c:	21027504 	addi	r4,r4,2516
 3202e80:	32011300 	call	3201130 <set_image_exposure>
 3202e84:	1007883a 	mov	r3,r2
 3202e88:	e0bdf117 	ldw	r2,-2108(fp)
 3202e8c:	10c5883a 	add	r2,r2,r3
 3202e90:	e0bdf115 	stw	r2,-2108(fp)
		case CMD_WRITE:
			/* Writes camera image registers */
			if (reg[0] == 'i' && reg[1] == 's') { // image size (width, height)
				tx_wr_pos += set_image_size(&camera, tx_wr_pos, data0, data1);
			}
			else if (reg[0] == 'i' && reg[1] == 'e') { // image exposure (exposure)
 3202e94:	00012b06 	br	3203344 <sss_exec_command+0xc84>
				tx_wr_pos += set_image_exposure(&camera, tx_wr_pos, data0);
			}
			else if (reg[0] == 's' && reg[1] == 'i') { // start image (start_column, start_row)
 3202e98:	e0bff343 	ldbu	r2,-51(fp)
 3202e9c:	10803fcc 	andi	r2,r2,255
 3202ea0:	1080201c 	xori	r2,r2,128
 3202ea4:	10bfe004 	addi	r2,r2,-128
 3202ea8:	10801cd8 	cmpnei	r2,r2,115
 3202eac:	1000111e 	bne	r2,zero,3202ef4 <sss_exec_command+0x834>
 3202eb0:	e0bff383 	ldbu	r2,-50(fp)
 3202eb4:	10803fcc 	andi	r2,r2,255
 3202eb8:	1080201c 	xori	r2,r2,128
 3202ebc:	10bfe004 	addi	r2,r2,-128
 3202ec0:	10801a58 	cmpnei	r2,r2,105
 3202ec4:	10000b1e 	bne	r2,zero,3202ef4 <sss_exec_command+0x834>
				tx_wr_pos += set_start_image(&camera, tx_wr_pos, data0, data1);
 3202ec8:	e17df117 	ldw	r5,-2108(fp)
 3202ecc:	e1bff417 	ldw	r6,-48(fp)
 3202ed0:	e1fff517 	ldw	r7,-44(fp)
 3202ed4:	0100c974 	movhi	r4,805
 3202ed8:	21027504 	addi	r4,r4,2516
 3202edc:	32011d00 	call	32011d0 <set_start_image>
 3202ee0:	1007883a 	mov	r3,r2
 3202ee4:	e0bdf117 	ldw	r2,-2108(fp)
 3202ee8:	10c5883a 	add	r2,r2,r3
 3202eec:	e0bdf115 	stw	r2,-2108(fp)
				tx_wr_pos += set_image_size(&camera, tx_wr_pos, data0, data1);
			}
			else if (reg[0] == 'i' && reg[1] == 'e') { // image exposure (exposure)
				tx_wr_pos += set_image_exposure(&camera, tx_wr_pos, data0);
			}
			else if (reg[0] == 's' && reg[1] == 'i') { // start image (start_column, start_row)
 3202ef0:	00011406 	br	3203344 <sss_exec_command+0xc84>
				tx_wr_pos += set_start_image(&camera, tx_wr_pos, data0, data1);
			}
			else if (reg[0] == 's' && reg[1] == 's'){ // sensor size (column_size, row_size)
 3202ef4:	e0bff343 	ldbu	r2,-51(fp)
 3202ef8:	10803fcc 	andi	r2,r2,255
 3202efc:	1080201c 	xori	r2,r2,128
 3202f00:	10bfe004 	addi	r2,r2,-128
 3202f04:	10801cd8 	cmpnei	r2,r2,115
 3202f08:	1000111e 	bne	r2,zero,3202f50 <sss_exec_command+0x890>
 3202f0c:	e0bff383 	ldbu	r2,-50(fp)
 3202f10:	10803fcc 	andi	r2,r2,255
 3202f14:	1080201c 	xori	r2,r2,128
 3202f18:	10bfe004 	addi	r2,r2,-128
 3202f1c:	10801cd8 	cmpnei	r2,r2,115
 3202f20:	10000b1e 	bne	r2,zero,3202f50 <sss_exec_command+0x890>
				tx_wr_pos += set_sensor_size(&camera, tx_wr_pos, data0, data1);
 3202f24:	e17df117 	ldw	r5,-2108(fp)
 3202f28:	e1bff417 	ldw	r6,-48(fp)
 3202f2c:	e1fff517 	ldw	r7,-44(fp)
 3202f30:	0100c974 	movhi	r4,805
 3202f34:	21027504 	addi	r4,r4,2516
 3202f38:	32012800 	call	3201280 <set_sensor_size>
 3202f3c:	1007883a 	mov	r3,r2
 3202f40:	e0bdf117 	ldw	r2,-2108(fp)
 3202f44:	10c5883a 	add	r2,r2,r3
 3202f48:	e0bdf115 	stw	r2,-2108(fp)
				tx_wr_pos += set_image_exposure(&camera, tx_wr_pos, data0);
			}
			else if (reg[0] == 's' && reg[1] == 'i') { // start image (start_column, start_row)
				tx_wr_pos += set_start_image(&camera, tx_wr_pos, data0, data1);
			}
			else if (reg[0] == 's' && reg[1] == 's'){ // sensor size (column_size, row_size)
 3202f4c:	0000fd06 	br	3203344 <sss_exec_command+0xc84>
				tx_wr_pos += set_sensor_size(&camera, tx_wr_pos, data0, data1);
			}
			else if (reg[0] == 's' && reg[1] == 'm'){ // sensor mode (column_mode, row_mode)
 3202f50:	e0bff343 	ldbu	r2,-51(fp)
 3202f54:	10803fcc 	andi	r2,r2,255
 3202f58:	1080201c 	xori	r2,r2,128
 3202f5c:	10bfe004 	addi	r2,r2,-128
 3202f60:	10801cd8 	cmpnei	r2,r2,115
 3202f64:	1000111e 	bne	r2,zero,3202fac <sss_exec_command+0x8ec>
 3202f68:	e0bff383 	ldbu	r2,-50(fp)
 3202f6c:	10803fcc 	andi	r2,r2,255
 3202f70:	1080201c 	xori	r2,r2,128
 3202f74:	10bfe004 	addi	r2,r2,-128
 3202f78:	10801b58 	cmpnei	r2,r2,109
 3202f7c:	10000b1e 	bne	r2,zero,3202fac <sss_exec_command+0x8ec>
				tx_wr_pos += set_sensor_mode(&camera, tx_wr_pos, data0, data1);
 3202f80:	e17df117 	ldw	r5,-2108(fp)
 3202f84:	e1bff417 	ldw	r6,-48(fp)
 3202f88:	e1fff517 	ldw	r7,-44(fp)
 3202f8c:	0100c974 	movhi	r4,805
 3202f90:	21027504 	addi	r4,r4,2516
 3202f94:	32013300 	call	3201330 <set_sensor_mode>
 3202f98:	1007883a 	mov	r3,r2
 3202f9c:	e0bdf117 	ldw	r2,-2108(fp)
 3202fa0:	10c5883a 	add	r2,r2,r3
 3202fa4:	e0bdf115 	stw	r2,-2108(fp)
				tx_wr_pos += set_start_image(&camera, tx_wr_pos, data0, data1);
			}
			else if (reg[0] == 's' && reg[1] == 's'){ // sensor size (column_size, row_size)
				tx_wr_pos += set_sensor_size(&camera, tx_wr_pos, data0, data1);
			}
			else if (reg[0] == 's' && reg[1] == 'm'){ // sensor mode (column_mode, row_mode)
 3202fa8:	0000e606 	br	3203344 <sss_exec_command+0xc84>
				tx_wr_pos += set_sensor_mode(&camera, tx_wr_pos, data0, data1);
			}
			/* Writes the selected sensor output */
			else if (reg[0] == 's' && reg[1] == 'o') { //  select output
 3202fac:	e0bff343 	ldbu	r2,-51(fp)
 3202fb0:	10803fcc 	andi	r2,r2,255
 3202fb4:	1080201c 	xori	r2,r2,128
 3202fb8:	10bfe004 	addi	r2,r2,-128
 3202fbc:	10801cd8 	cmpnei	r2,r2,115
 3202fc0:	1000101e 	bne	r2,zero,3203004 <sss_exec_command+0x944>
 3202fc4:	e0bff383 	ldbu	r2,-50(fp)
 3202fc8:	10803fcc 	andi	r2,r2,255
 3202fcc:	1080201c 	xori	r2,r2,128
 3202fd0:	10bfe004 	addi	r2,r2,-128
 3202fd4:	10801bd8 	cmpnei	r2,r2,111
 3202fd8:	10000a1e 	bne	r2,zero,3203004 <sss_exec_command+0x944>
				tx_wr_pos += select_sensor_output(&camera, tx_wr_pos, data0);
 3202fdc:	e17df117 	ldw	r5,-2108(fp)
 3202fe0:	e1bff417 	ldw	r6,-48(fp)
 3202fe4:	0100c974 	movhi	r4,805
 3202fe8:	21027504 	addi	r4,r4,2516
 3202fec:	32014400 	call	3201440 <select_sensor_output>
 3202ff0:	1007883a 	mov	r3,r2
 3202ff4:	e0bdf117 	ldw	r2,-2108(fp)
 3202ff8:	10c5883a 	add	r2,r2,r3
 3202ffc:	e0bdf115 	stw	r2,-2108(fp)
			}
			else if (reg[0] == 's' && reg[1] == 'm'){ // sensor mode (column_mode, row_mode)
				tx_wr_pos += set_sensor_mode(&camera, tx_wr_pos, data0, data1);
			}
			/* Writes the selected sensor output */
			else if (reg[0] == 's' && reg[1] == 'o') { //  select output
 3203000:	0000d006 	br	3203344 <sss_exec_command+0xc84>
				tx_wr_pos += select_sensor_output(&camera, tx_wr_pos, data0);
			}
			// TODO: Group sensor configuration functions
			/* Writes thresholds (min, max) */
			else if (reg[0] == 'r' && reg[1] == 't'){
 3203004:	e0bff343 	ldbu	r2,-51(fp)
 3203008:	10803fcc 	andi	r2,r2,255
 320300c:	1080201c 	xori	r2,r2,128
 3203010:	10bfe004 	addi	r2,r2,-128
 3203014:	10801c98 	cmpnei	r2,r2,114
 3203018:	1000191e 	bne	r2,zero,3203080 <sss_exec_command+0x9c0>
 320301c:	e0bff383 	ldbu	r2,-50(fp)
 3203020:	10803fcc 	andi	r2,r2,255
 3203024:	1080201c 	xori	r2,r2,128
 3203028:	10bfe004 	addi	r2,r2,-128
 320302c:	10801d18 	cmpnei	r2,r2,116
 3203030:	1000131e 	bne	r2,zero,3203080 <sss_exec_command+0x9c0>
				IOWR_SENSOR_RED_THRESHOLD_MIN(SENSOR_BASE, data0);
 3203034:	e0fff417 	ldw	r3,-48(fp)
 3203038:	0080d034 	movhi	r2,832
 320303c:	10880004 	addi	r2,r2,8192
 3203040:	10c00035 	stwio	r3,0(r2)
				IOWR_SENSOR_RED_THRESHOLD_MAX(SENSOR_BASE, data1);
 3203044:	e0fff517 	ldw	r3,-44(fp)
 3203048:	0080d034 	movhi	r2,832
 320304c:	10880404 	addi	r2,r2,8208
 3203050:	10c00035 	stwio	r3,0(r2)
				tx_wr_pos += sprintf(tx_wr_pos, "(%i,%i)", data0, data1);
 3203054:	e13df117 	ldw	r4,-2108(fp)
 3203058:	e1bff417 	ldw	r6,-48(fp)
 320305c:	e1fff517 	ldw	r7,-44(fp)
 3203060:	0140c974 	movhi	r5,805
 3203064:	29755004 	addi	r5,r5,-10944
 3203068:	32079c00 	call	32079c0 <sprintf>
 320306c:	1007883a 	mov	r3,r2
 3203070:	e0bdf117 	ldw	r2,-2108(fp)
 3203074:	10c5883a 	add	r2,r2,r3
 3203078:	e0bdf115 	stw	r2,-2108(fp)
			else if (reg[0] == 's' && reg[1] == 'o') { //  select output
				tx_wr_pos += select_sensor_output(&camera, tx_wr_pos, data0);
			}
			// TODO: Group sensor configuration functions
			/* Writes thresholds (min, max) */
			else if (reg[0] == 'r' && reg[1] == 't'){
 320307c:	0000b106 	br	3203344 <sss_exec_command+0xc84>
				IOWR_SENSOR_RED_THRESHOLD_MIN(SENSOR_BASE, data0);
				IOWR_SENSOR_RED_THRESHOLD_MAX(SENSOR_BASE, data1);
				tx_wr_pos += sprintf(tx_wr_pos, "(%i,%i)", data0, data1);
			}
			else if (reg[0] == 'g' && reg[1] == 't'){
 3203080:	e0bff343 	ldbu	r2,-51(fp)
 3203084:	10803fcc 	andi	r2,r2,255
 3203088:	1080201c 	xori	r2,r2,128
 320308c:	10bfe004 	addi	r2,r2,-128
 3203090:	108019d8 	cmpnei	r2,r2,103
 3203094:	1000191e 	bne	r2,zero,32030fc <sss_exec_command+0xa3c>
 3203098:	e0bff383 	ldbu	r2,-50(fp)
 320309c:	10803fcc 	andi	r2,r2,255
 32030a0:	1080201c 	xori	r2,r2,128
 32030a4:	10bfe004 	addi	r2,r2,-128
 32030a8:	10801d18 	cmpnei	r2,r2,116
 32030ac:	1000131e 	bne	r2,zero,32030fc <sss_exec_command+0xa3c>
				IOWR_SENSOR_GREEN_THRESHOLD_MIN(SENSOR_BASE, data0);
 32030b0:	e0fff417 	ldw	r3,-48(fp)
 32030b4:	0080d034 	movhi	r2,832
 32030b8:	10880804 	addi	r2,r2,8224
 32030bc:	10c00035 	stwio	r3,0(r2)
				IOWR_SENSOR_GREEN_THRESHOLD_MAX(SENSOR_BASE, data1);
 32030c0:	e0fff517 	ldw	r3,-44(fp)
 32030c4:	0080d034 	movhi	r2,832
 32030c8:	10880c04 	addi	r2,r2,8240
 32030cc:	10c00035 	stwio	r3,0(r2)
				tx_wr_pos += sprintf(tx_wr_pos, "(%i,%i)", data0, data1);
 32030d0:	e13df117 	ldw	r4,-2108(fp)
 32030d4:	e1bff417 	ldw	r6,-48(fp)
 32030d8:	e1fff517 	ldw	r7,-44(fp)
 32030dc:	0140c974 	movhi	r5,805
 32030e0:	29755004 	addi	r5,r5,-10944
 32030e4:	32079c00 	call	32079c0 <sprintf>
 32030e8:	1007883a 	mov	r3,r2
 32030ec:	e0bdf117 	ldw	r2,-2108(fp)
 32030f0:	10c5883a 	add	r2,r2,r3
 32030f4:	e0bdf115 	stw	r2,-2108(fp)
			else if (reg[0] == 'r' && reg[1] == 't'){
				IOWR_SENSOR_RED_THRESHOLD_MIN(SENSOR_BASE, data0);
				IOWR_SENSOR_RED_THRESHOLD_MAX(SENSOR_BASE, data1);
				tx_wr_pos += sprintf(tx_wr_pos, "(%i,%i)", data0, data1);
			}
			else if (reg[0] == 'g' && reg[1] == 't'){
 32030f8:	00009206 	br	3203344 <sss_exec_command+0xc84>
				IOWR_SENSOR_GREEN_THRESHOLD_MIN(SENSOR_BASE, data0);
				IOWR_SENSOR_GREEN_THRESHOLD_MAX(SENSOR_BASE, data1);
				tx_wr_pos += sprintf(tx_wr_pos, "(%i,%i)", data0, data1);
			}
			else if (reg[0] == 'b' && reg[1] == 't'){
 32030fc:	e0bff343 	ldbu	r2,-51(fp)
 3203100:	10803fcc 	andi	r2,r2,255
 3203104:	1080201c 	xori	r2,r2,128
 3203108:	10bfe004 	addi	r2,r2,-128
 320310c:	10801898 	cmpnei	r2,r2,98
 3203110:	1000191e 	bne	r2,zero,3203178 <sss_exec_command+0xab8>
 3203114:	e0bff383 	ldbu	r2,-50(fp)
 3203118:	10803fcc 	andi	r2,r2,255
 320311c:	1080201c 	xori	r2,r2,128
 3203120:	10bfe004 	addi	r2,r2,-128
 3203124:	10801d18 	cmpnei	r2,r2,116
 3203128:	1000131e 	bne	r2,zero,3203178 <sss_exec_command+0xab8>
				IOWR_SENSOR_BLUE_THRESHOLD_MIN(SENSOR_BASE, data0);
 320312c:	e0fff417 	ldw	r3,-48(fp)
 3203130:	0080d034 	movhi	r2,832
 3203134:	10881004 	addi	r2,r2,8256
 3203138:	10c00035 	stwio	r3,0(r2)
				IOWR_SENSOR_BLUE_THRESHOLD_MAX(SENSOR_BASE, data1);
 320313c:	e0fff517 	ldw	r3,-44(fp)
 3203140:	0080d034 	movhi	r2,832
 3203144:	10881404 	addi	r2,r2,8272
 3203148:	10c00035 	stwio	r3,0(r2)
				tx_wr_pos += sprintf(tx_wr_pos, "(%i,%i)", data0, data1);
 320314c:	e13df117 	ldw	r4,-2108(fp)
 3203150:	e1bff417 	ldw	r6,-48(fp)
 3203154:	e1fff517 	ldw	r7,-44(fp)
 3203158:	0140c974 	movhi	r5,805
 320315c:	29755004 	addi	r5,r5,-10944
 3203160:	32079c00 	call	32079c0 <sprintf>
 3203164:	1007883a 	mov	r3,r2
 3203168:	e0bdf117 	ldw	r2,-2108(fp)
 320316c:	10c5883a 	add	r2,r2,r3
 3203170:	e0bdf115 	stw	r2,-2108(fp)
			else if (reg[0] == 'g' && reg[1] == 't'){
				IOWR_SENSOR_GREEN_THRESHOLD_MIN(SENSOR_BASE, data0);
				IOWR_SENSOR_GREEN_THRESHOLD_MAX(SENSOR_BASE, data1);
				tx_wr_pos += sprintf(tx_wr_pos, "(%i,%i)", data0, data1);
			}
			else if (reg[0] == 'b' && reg[1] == 't'){
 3203174:	00007306 	br	3203344 <sss_exec_command+0xc84>
				IOWR_SENSOR_BLUE_THRESHOLD_MIN(SENSOR_BASE, data0);
				IOWR_SENSOR_BLUE_THRESHOLD_MAX(SENSOR_BASE, data1);
				tx_wr_pos += sprintf(tx_wr_pos, "(%i,%i)", data0, data1);
			}
			/* Frees all tracker devices */
			else if (reg[0] == 'f' && reg[1] == 'a') {
 3203178:	e0bff343 	ldbu	r2,-51(fp)
 320317c:	10803fcc 	andi	r2,r2,255
 3203180:	1080201c 	xori	r2,r2,128
 3203184:	10bfe004 	addi	r2,r2,-128
 3203188:	10801998 	cmpnei	r2,r2,102
 320318c:	10000d1e 	bne	r2,zero,32031c4 <sss_exec_command+0xb04>
 3203190:	e0bff383 	ldbu	r2,-50(fp)
 3203194:	10803fcc 	andi	r2,r2,255
 3203198:	1080201c 	xori	r2,r2,128
 320319c:	10bfe004 	addi	r2,r2,-128
 32031a0:	10801858 	cmpnei	r2,r2,97
 32031a4:	1000071e 	bne	r2,zero,32031c4 <sss_exec_command+0xb04>
				tx_wr_pos += trackers_free(tx_wr_pos);
 32031a8:	e13df117 	ldw	r4,-2108(fp)
 32031ac:	3203cc00 	call	3203cc0 <trackers_free>
 32031b0:	1007883a 	mov	r3,r2
 32031b4:	e0bdf117 	ldw	r2,-2108(fp)
 32031b8:	10c5883a 	add	r2,r2,r3
 32031bc:	e0bdf115 	stw	r2,-2108(fp)
				IOWR_SENSOR_BLUE_THRESHOLD_MIN(SENSOR_BASE, data0);
				IOWR_SENSOR_BLUE_THRESHOLD_MAX(SENSOR_BASE, data1);
				tx_wr_pos += sprintf(tx_wr_pos, "(%i,%i)", data0, data1);
			}
			/* Frees all tracker devices */
			else if (reg[0] == 'f' && reg[1] == 'a') {
 32031c0:	00006006 	br	3203344 <sss_exec_command+0xc84>
				tx_wr_pos += trackers_free(tx_wr_pos);
			}
			/* Activates a tracker device. */
			else if (reg[0] == 'a' && reg[1] == 't') {
 32031c4:	e0bff343 	ldbu	r2,-51(fp)
 32031c8:	10803fcc 	andi	r2,r2,255
 32031cc:	1080201c 	xori	r2,r2,128
 32031d0:	10bfe004 	addi	r2,r2,-128
 32031d4:	10801858 	cmpnei	r2,r2,97
 32031d8:	10000e1e 	bne	r2,zero,3203214 <sss_exec_command+0xb54>
 32031dc:	e0bff383 	ldbu	r2,-50(fp)
 32031e0:	10803fcc 	andi	r2,r2,255
 32031e4:	1080201c 	xori	r2,r2,128
 32031e8:	10bfe004 	addi	r2,r2,-128
 32031ec:	10801d18 	cmpnei	r2,r2,116
 32031f0:	1000081e 	bne	r2,zero,3203214 <sss_exec_command+0xb54>
				tx_wr_pos += activate_tracker(data0, tx_wr_pos);
 32031f4:	e13ff417 	ldw	r4,-48(fp)
 32031f8:	e17df117 	ldw	r5,-2108(fp)
 32031fc:	3203d600 	call	3203d60 <activate_tracker>
 3203200:	1007883a 	mov	r3,r2
 3203204:	e0bdf117 	ldw	r2,-2108(fp)
 3203208:	10c5883a 	add	r2,r2,r3
 320320c:	e0bdf115 	stw	r2,-2108(fp)
			/* Frees all tracker devices */
			else if (reg[0] == 'f' && reg[1] == 'a') {
				tx_wr_pos += trackers_free(tx_wr_pos);
			}
			/* Activates a tracker device. */
			else if (reg[0] == 'a' && reg[1] == 't') {
 3203210:	00004c06 	br	3203344 <sss_exec_command+0xc84>
				tx_wr_pos += activate_tracker(data0, tx_wr_pos);
			}
			/* Disables a tracker device. */
			else if (reg[0] == 'd' && reg[1] == 't') {
 3203214:	e0bff343 	ldbu	r2,-51(fp)
 3203218:	10803fcc 	andi	r2,r2,255
 320321c:	1080201c 	xori	r2,r2,128
 3203220:	10bfe004 	addi	r2,r2,-128
 3203224:	10801918 	cmpnei	r2,r2,100
 3203228:	10000e1e 	bne	r2,zero,3203264 <sss_exec_command+0xba4>
 320322c:	e0bff383 	ldbu	r2,-50(fp)
 3203230:	10803fcc 	andi	r2,r2,255
 3203234:	1080201c 	xori	r2,r2,128
 3203238:	10bfe004 	addi	r2,r2,-128
 320323c:	10801d18 	cmpnei	r2,r2,116
 3203240:	1000081e 	bne	r2,zero,3203264 <sss_exec_command+0xba4>
				tx_wr_pos += disable_tracker(data0, tx_wr_pos);
 3203244:	e13ff417 	ldw	r4,-48(fp)
 3203248:	e17df117 	ldw	r5,-2108(fp)
 320324c:	3203ec80 	call	3203ec8 <disable_tracker>
 3203250:	1007883a 	mov	r3,r2
 3203254:	e0bdf117 	ldw	r2,-2108(fp)
 3203258:	10c5883a 	add	r2,r2,r3
 320325c:	e0bdf115 	stw	r2,-2108(fp)
			/* Activates a tracker device. */
			else if (reg[0] == 'a' && reg[1] == 't') {
				tx_wr_pos += activate_tracker(data0, tx_wr_pos);
			}
			/* Disables a tracker device. */
			else if (reg[0] == 'd' && reg[1] == 't') {
 3203260:	00003806 	br	3203344 <sss_exec_command+0xc84>
				tx_wr_pos += disable_tracker(data0, tx_wr_pos);
			}
			/* Frees a tracker device. */
			else if (reg[0] == 'f' && reg[1] == 't') {
 3203264:	e0bff343 	ldbu	r2,-51(fp)
 3203268:	10803fcc 	andi	r2,r2,255
 320326c:	1080201c 	xori	r2,r2,128
 3203270:	10bfe004 	addi	r2,r2,-128
 3203274:	10801998 	cmpnei	r2,r2,102
 3203278:	10000e1e 	bne	r2,zero,32032b4 <sss_exec_command+0xbf4>
 320327c:	e0bff383 	ldbu	r2,-50(fp)
 3203280:	10803fcc 	andi	r2,r2,255
 3203284:	1080201c 	xori	r2,r2,128
 3203288:	10bfe004 	addi	r2,r2,-128
 320328c:	10801d18 	cmpnei	r2,r2,116
 3203290:	1000081e 	bne	r2,zero,32032b4 <sss_exec_command+0xbf4>
				tx_wr_pos += free_tracker(data0, tx_wr_pos);
 3203294:	e13ff417 	ldw	r4,-48(fp)
 3203298:	e17df117 	ldw	r5,-2108(fp)
 320329c:	3203f8c0 	call	3203f8c <free_tracker>
 32032a0:	1007883a 	mov	r3,r2
 32032a4:	e0bdf117 	ldw	r2,-2108(fp)
 32032a8:	10c5883a 	add	r2,r2,r3
 32032ac:	e0bdf115 	stw	r2,-2108(fp)
			/* Disables a tracker device. */
			else if (reg[0] == 'd' && reg[1] == 't') {
				tx_wr_pos += disable_tracker(data0, tx_wr_pos);
			}
			/* Frees a tracker device. */
			else if (reg[0] == 'f' && reg[1] == 't') {
 32032b0:	00002406 	br	3203344 <sss_exec_command+0xc84>
				tx_wr_pos += free_tracker(data0, tx_wr_pos);
			}
			/* Sets a search window for the assigned tracker device (x, y, width, height) */
			else if (reg[0] == 's' && reg[1] == 'w') {
 32032b4:	e0bff343 	ldbu	r2,-51(fp)
 32032b8:	10803fcc 	andi	r2,r2,255
 32032bc:	1080201c 	xori	r2,r2,128
 32032c0:	10bfe004 	addi	r2,r2,-128
 32032c4:	10801cd8 	cmpnei	r2,r2,115
 32032c8:	1000141e 	bne	r2,zero,320331c <sss_exec_command+0xc5c>
 32032cc:	e0bff383 	ldbu	r2,-50(fp)
 32032d0:	10803fcc 	andi	r2,r2,255
 32032d4:	1080201c 	xori	r2,r2,128
 32032d8:	10bfe004 	addi	r2,r2,-128
 32032dc:	10801dd8 	cmpnei	r2,r2,119
 32032e0:	10000e1e 	bne	r2,zero,320331c <sss_exec_command+0xc5c>
				tx_wr_pos += set_search_window_of_tracker(data0, tx_wr_pos, data1, data2, data3, data4);
 32032e4:	e13ff417 	ldw	r4,-48(fp)
 32032e8:	e17df117 	ldw	r5,-2108(fp)
 32032ec:	e1bff517 	ldw	r6,-44(fp)
 32032f0:	e1fff617 	ldw	r7,-40(fp)
 32032f4:	e0bff717 	ldw	r2,-36(fp)
 32032f8:	e0fff817 	ldw	r3,-32(fp)
 32032fc:	d8800015 	stw	r2,0(sp)
 3203300:	d8c00115 	stw	r3,4(sp)
 3203304:	320406c0 	call	320406c <set_search_window_of_tracker>
 3203308:	1007883a 	mov	r3,r2
 320330c:	e0bdf117 	ldw	r2,-2108(fp)
 3203310:	10c5883a 	add	r2,r2,r3
 3203314:	e0bdf115 	stw	r2,-2108(fp)
			/* Frees a tracker device. */
			else if (reg[0] == 'f' && reg[1] == 't') {
				tx_wr_pos += free_tracker(data0, tx_wr_pos);
			}
			/* Sets a search window for the assigned tracker device (x, y, width, height) */
			else if (reg[0] == 's' && reg[1] == 'w') {
 3203318:	00000a06 	br	3203344 <sss_exec_command+0xc84>
				tx_wr_pos += set_search_window_of_tracker(data0, tx_wr_pos, data1, data2, data3, data4);
			}
			else {
				tx_wr_pos += sprintf(tx_wr_pos, "Wrong command!");
 320331c:	e0bdf117 	ldw	r2,-2108(fp)
 3203320:	00c0c974 	movhi	r3,805
 3203324:	18f55304 	addi	r3,r3,-10932
 3203328:	1009883a 	mov	r4,r2
 320332c:	180b883a 	mov	r5,r3
 3203330:	018003c4 	movi	r6,15
 3203334:	3206ad00 	call	3206ad0 <memcpy>
 3203338:	e0bdf117 	ldw	r2,-2108(fp)
 320333c:	10800384 	addi	r2,r2,14
 3203340:	e0bdf115 	stw	r2,-2108(fp)
			}
			tx_wr_pos += sprintf(tx_wr_pos, "\n");
 3203344:	e0fdf117 	ldw	r3,-2108(fp)
 3203348:	00800284 	movi	r2,10
 320334c:	18800005 	stb	r2,0(r3)
 3203350:	18000045 	stb	zero,1(r3)
 3203354:	e0bdf117 	ldw	r2,-2108(fp)
 3203358:	10800044 	addi	r2,r2,1
 320335c:	e0bdf115 	stw	r2,-2108(fp)
			break;
 3203360:	00006e06 	br	320351c <sss_exec_command+0xe5c>
		case CMD_CONFIGURE: // Reconfigures the camera sensor
			tx_wr_pos += camera_configure(&camera, tx_wr_pos);
 3203364:	e17df117 	ldw	r5,-2108(fp)
 3203368:	0100c974 	movhi	r4,805
 320336c:	21027504 	addi	r4,r4,2516
 3203370:	32013880 	call	3201388 <camera_configure>
 3203374:	1007883a 	mov	r3,r2
 3203378:	e0bdf117 	ldw	r2,-2108(fp)
 320337c:	10c5883a 	add	r2,r2,r3
 3203380:	e0bdf115 	stw	r2,-2108(fp)
			tx_wr_pos += sprintf(tx_wr_pos, "\n");
 3203384:	e0fdf117 	ldw	r3,-2108(fp)
 3203388:	00800284 	movi	r2,10
 320338c:	18800005 	stb	r2,0(r3)
 3203390:	18000045 	stb	zero,1(r3)
 3203394:	e0bdf117 	ldw	r2,-2108(fp)
 3203398:	10800044 	addi	r2,r2,1
 320339c:	e0bdf115 	stw	r2,-2108(fp)
			break;
 32033a0:	00005e06 	br	320351c <sss_exec_command+0xe5c>
		case CMD_CAPTURE: // Captures the image data (Start/Stop)
			printf("Capturing image...\n");
 32033a4:	0100c974 	movhi	r4,805
 32033a8:	21355704 	addi	r4,r4,-10916
 32033ac:	32071080 	call	3207108 <puts>
			IOWR_CAMERA_CAPTURE_START(CAMERA_BASE);
 32033b0:	00c0d034 	movhi	r3,832
 32033b4:	18c90004 	addi	r3,r3,9216
 32033b8:	00800044 	movi	r2,1
 32033bc:	18800035 	stwio	r2,0(r3)
			IOWR_CAMERA_CAPTURE_STOP(CAMERA_BASE);
 32033c0:	0080d034 	movhi	r2,832
 32033c4:	10890004 	addi	r2,r2,9216
 32033c8:	10000035 	stwio	zero,0(r2)
			//OSTimeDly(1);
			printf("Image captured\n");
 32033cc:	0100c974 	movhi	r4,805
 32033d0:	21355c04 	addi	r4,r4,-10896
 32033d4:	32071080 	call	3207108 <puts>
			tx_wr_pos += sprintf(tx_wr_pos, "Image captured.\n");
 32033d8:	e0bdf117 	ldw	r2,-2108(fp)
 32033dc:	00c0c974 	movhi	r3,805
 32033e0:	18f56004 	addi	r3,r3,-10880
 32033e4:	1009883a 	mov	r4,r2
 32033e8:	180b883a 	mov	r5,r3
 32033ec:	01800444 	movi	r6,17
 32033f0:	3206ad00 	call	3206ad0 <memcpy>
 32033f4:	e0bdf117 	ldw	r2,-2108(fp)
 32033f8:	10800404 	addi	r2,r2,16
 32033fc:	e0bdf115 	stw	r2,-2108(fp)
			break;
 3203400:	00004606 	br	320351c <sss_exec_command+0xe5c>
		case CMD_DATA:
			// Send image data
			send_data = 1;
 3203404:	00800044 	movi	r2,1
 3203408:	e0bdf005 	stb	r2,-2112(fp)
			printf("RGB image data sending...\n");
 320340c:	0100c974 	movhi	r4,805
 3203410:	21356504 	addi	r4,r4,-10860
 3203414:	32071080 	call	3207108 <puts>
			tx_wr_pos = tx_buf;
 3203418:	e0bdf304 	addi	r2,fp,-2100
 320341c:	e0bdf115 	stw	r2,-2108(fp)
			break;
 3203420:	00003e06 	br	320351c <sss_exec_command+0xe5c>
		case CMD_GRAY:
			// Send gray image data
			send_data = 2;
 3203424:	00800084 	movi	r2,2
 3203428:	e0bdf005 	stb	r2,-2112(fp)
			printf("Gray image data sending...\n");
 320342c:	0100c974 	movhi	r4,805
 3203430:	21356c04 	addi	r4,r4,-10832
 3203434:	32071080 	call	3207108 <puts>
			tx_wr_pos = tx_buf;
